Archive member included to satisfy reference by file (symbol)

/usr/lib/gcc/arm-none-eabi/4.9.3/armv6-m/libgcc.a(_udivsi3.o)
                              nrf51_sdk/nrf51822/Source/app_common/pstorage.o (__aeabi_uidiv)
/usr/lib/gcc/arm-none-eabi/4.9.3/armv6-m/libgcc.a(_divsi3.o)
                              nrf51_sdk/nrf51822/Source/app_common/pstorage.o (__aeabi_idiv)
/usr/lib/gcc/arm-none-eabi/4.9.3/armv6-m/libgcc.a(_dvmd_tls.o)
                              /usr/lib/gcc/arm-none-eabi/4.9.3/armv6-m/libgcc.a(_udivsi3.o) (__aeabi_idiv0)
/usr/lib/gcc/arm-none-eabi/4.9.3/armv6-m/libgcc.a(divsf3.o)
                              src/pm.o (__aeabi_fdiv)
/usr/lib/gcc/arm-none-eabi/4.9.3/armv6-m/libgcc.a(mulsf3.o)
                              src/pm.o (__aeabi_fmul)
/usr/lib/gcc/arm-none-eabi/4.9.3/armv6-m/libgcc.a(floatsisf.o)
                              src/pm.o (__aeabi_i2f)
/usr/lib/gcc/arm-none-eabi/4.9.3/armv6-m/libgcc.a(_clzsi2.o)
                              /usr/lib/gcc/arm-none-eabi/4.9.3/armv6-m/libgcc.a(divsf3.o) (__clzsi2)
/usr/lib/gcc/arm-none-eabi/4.9.3/../../../arm-none-eabi/lib/armv6-m/libc_nano.a(lib_a-atexit.o)
                              /usr/lib/gcc/arm-none-eabi/4.9.3/../../../arm-none-eabi/lib/armv6-m/crt0.o (atexit)
/usr/lib/gcc/arm-none-eabi/4.9.3/../../../arm-none-eabi/lib/armv6-m/libc_nano.a(lib_a-bzero.o)
                              src/main.o (bzero)
/usr/lib/gcc/arm-none-eabi/4.9.3/../../../arm-none-eabi/lib/armv6-m/libc_nano.a(lib_a-errno.o)
                              src/ow.o (__errno)
/usr/lib/gcc/arm-none-eabi/4.9.3/../../../arm-none-eabi/lib/armv6-m/libc_nano.a(lib_a-exit.o)
                              /usr/lib/gcc/arm-none-eabi/4.9.3/../../../arm-none-eabi/lib/armv6-m/crt0.o (exit)
/usr/lib/gcc/arm-none-eabi/4.9.3/../../../arm-none-eabi/lib/armv6-m/libc_nano.a(lib_a-fini.o)
                              /usr/lib/gcc/arm-none-eabi/4.9.3/../../../arm-none-eabi/lib/armv6-m/crt0.o (__libc_fini_array)
/usr/lib/gcc/arm-none-eabi/4.9.3/../../../arm-none-eabi/lib/armv6-m/libc_nano.a(lib_a-impure.o)
                              /usr/lib/gcc/arm-none-eabi/4.9.3/../../../arm-none-eabi/lib/armv6-m/libc_nano.a(lib_a-exit.o) (_global_impure_ptr)
/usr/lib/gcc/arm-none-eabi/4.9.3/../../../arm-none-eabi/lib/armv6-m/libc_nano.a(lib_a-init.o)
                              /usr/lib/gcc/arm-none-eabi/4.9.3/../../../arm-none-eabi/lib/armv6-m/crt0.o (__libc_init_array)
/usr/lib/gcc/arm-none-eabi/4.9.3/../../../arm-none-eabi/lib/armv6-m/libc_nano.a(lib_a-memcmp.o)
                              nrf51_sdk/nrf51822/Source/ble/device_manager/device_manager_peripheral.o (memcmp)
/usr/lib/gcc/arm-none-eabi/4.9.3/../../../arm-none-eabi/lib/armv6-m/libc_nano.a(lib_a-memcpy.o)
                              src/ble/ble.o (memcpy)
/usr/lib/gcc/arm-none-eabi/4.9.3/../../../arm-none-eabi/lib/armv6-m/libc_nano.a(lib_a-memset.o)
                              /usr/lib/gcc/arm-none-eabi/4.9.3/../../../arm-none-eabi/lib/armv6-m/crt0.o (memset)
/usr/lib/gcc/arm-none-eabi/4.9.3/../../../arm-none-eabi/lib/armv6-m/libc_nano.a(lib_a-printf.o)
                              src/ds28e05.o (printf)
/usr/lib/gcc/arm-none-eabi/4.9.3/../../../arm-none-eabi/lib/armv6-m/libc_nano.a(lib_a-strlen.o)
                              nrf51_sdk/nrf51822/Source/ble/ble_services/ble_srv_common.o (strlen)
/usr/lib/gcc/arm-none-eabi/4.9.3/../../../arm-none-eabi/lib/armv6-m/libc_nano.a(lib_a-__atexit.o)
                              /usr/lib/gcc/arm-none-eabi/4.9.3/../../../arm-none-eabi/lib/armv6-m/libc_nano.a(lib_a-atexit.o) (__register_exitproc)
/usr/lib/gcc/arm-none-eabi/4.9.3/../../../arm-none-eabi/lib/armv6-m/libc_nano.a(lib_a-__call_atexit.o)
                              /usr/lib/gcc/arm-none-eabi/4.9.3/../../../arm-none-eabi/lib/armv6-m/libc_nano.a(lib_a-__atexit.o) (__call_exitprocs)
/usr/lib/gcc/arm-none-eabi/4.9.3/../../../arm-none-eabi/lib/armv6-m/libc_nano.a(lib_a-findfp.o)
                              /usr/lib/gcc/arm-none-eabi/4.9.3/../../../arm-none-eabi/lib/armv6-m/libc_nano.a(lib_a-printf.o) (__sinit)
/usr/lib/gcc/arm-none-eabi/4.9.3/../../../arm-none-eabi/lib/armv6-m/libc_nano.a(lib_a-fwalk.o)
                              /usr/lib/gcc/arm-none-eabi/4.9.3/../../../arm-none-eabi/lib/armv6-m/libc_nano.a(lib_a-findfp.o) (_fwalk)
/usr/lib/gcc/arm-none-eabi/4.9.3/../../../arm-none-eabi/lib/armv6-m/libc_nano.a(lib_a-nano-mallocr.o)
                              /usr/lib/gcc/arm-none-eabi/4.9.3/../../../arm-none-eabi/lib/armv6-m/libc_nano.a(lib_a-findfp.o) (_malloc_r)
/usr/lib/gcc/arm-none-eabi/4.9.3/../../../arm-none-eabi/lib/armv6-m/libc_nano.a(lib_a-nano-vfprintf.o)
                              /usr/lib/gcc/arm-none-eabi/4.9.3/../../../arm-none-eabi/lib/armv6-m/libc_nano.a(lib_a-printf.o) (_vfprintf_r)
/usr/lib/gcc/arm-none-eabi/4.9.3/../../../arm-none-eabi/lib/armv6-m/libc_nano.a(lib_a-nano-vfprintf_i.o)
                              /usr/lib/gcc/arm-none-eabi/4.9.3/../../../arm-none-eabi/lib/armv6-m/libc_nano.a(lib_a-nano-vfprintf.o) (_printf_i)
/usr/lib/gcc/arm-none-eabi/4.9.3/../../../arm-none-eabi/lib/armv6-m/libc_nano.a(lib_a-sbrkr.o)
                              /usr/lib/gcc/arm-none-eabi/4.9.3/../../../arm-none-eabi/lib/armv6-m/libc_nano.a(lib_a-nano-mallocr.o) (_sbrk_r)
/usr/lib/gcc/arm-none-eabi/4.9.3/../../../arm-none-eabi/lib/armv6-m/libc_nano.a(lib_a-stdio.o)
                              /usr/lib/gcc/arm-none-eabi/4.9.3/../../../arm-none-eabi/lib/armv6-m/libc_nano.a(lib_a-findfp.o) (__sread)
/usr/lib/gcc/arm-none-eabi/4.9.3/../../../arm-none-eabi/lib/armv6-m/libc_nano.a(lib_a-wbuf.o)
                              /usr/lib/gcc/arm-none-eabi/4.9.3/../../../arm-none-eabi/lib/armv6-m/libc_nano.a(lib_a-nano-vfprintf.o) (__swbuf_r)
/usr/lib/gcc/arm-none-eabi/4.9.3/../../../arm-none-eabi/lib/armv6-m/libc_nano.a(lib_a-writer.o)
                              /usr/lib/gcc/arm-none-eabi/4.9.3/../../../arm-none-eabi/lib/armv6-m/libc_nano.a(lib_a-stdio.o) (_write_r)
/usr/lib/gcc/arm-none-eabi/4.9.3/../../../arm-none-eabi/lib/armv6-m/libc_nano.a(lib_a-wsetup.o)
                              /usr/lib/gcc/arm-none-eabi/4.9.3/../../../arm-none-eabi/lib/armv6-m/libc_nano.a(lib_a-nano-vfprintf.o) (__swsetup_r)
/usr/lib/gcc/arm-none-eabi/4.9.3/../../../arm-none-eabi/lib/armv6-m/libc_nano.a(lib_a-closer.o)
                              /usr/lib/gcc/arm-none-eabi/4.9.3/../../../arm-none-eabi/lib/armv6-m/libc_nano.a(lib_a-stdio.o) (_close_r)
/usr/lib/gcc/arm-none-eabi/4.9.3/../../../arm-none-eabi/lib/armv6-m/libc_nano.a(lib_a-fflush.o)
                              /usr/lib/gcc/arm-none-eabi/4.9.3/../../../arm-none-eabi/lib/armv6-m/libc_nano.a(lib_a-findfp.o) (_fflush_r)
/usr/lib/gcc/arm-none-eabi/4.9.3/../../../arm-none-eabi/lib/armv6-m/libc_nano.a(lib_a-fvwrite.o)
                              /usr/lib/gcc/arm-none-eabi/4.9.3/../../../arm-none-eabi/lib/armv6-m/libc_nano.a(lib_a-nano-vfprintf.o) (__sfvwrite_r)
/usr/lib/gcc/arm-none-eabi/4.9.3/../../../arm-none-eabi/lib/armv6-m/libc_nano.a(lib_a-lseekr.o)
                              /usr/lib/gcc/arm-none-eabi/4.9.3/../../../arm-none-eabi/lib/armv6-m/libc_nano.a(lib_a-stdio.o) (_lseek_r)
/usr/lib/gcc/arm-none-eabi/4.9.3/../../../arm-none-eabi/lib/armv6-m/libc_nano.a(lib_a-makebuf.o)
                              /usr/lib/gcc/arm-none-eabi/4.9.3/../../../arm-none-eabi/lib/armv6-m/libc_nano.a(lib_a-wsetup.o) (__smakebuf_r)
/usr/lib/gcc/arm-none-eabi/4.9.3/../../../arm-none-eabi/lib/armv6-m/libc_nano.a(lib_a-memchr.o)
                              /usr/lib/gcc/arm-none-eabi/4.9.3/../../../arm-none-eabi/lib/armv6-m/libc_nano.a(lib_a-nano-vfprintf.o) (memchr)
/usr/lib/gcc/arm-none-eabi/4.9.3/../../../arm-none-eabi/lib/armv6-m/libc_nano.a(lib_a-memmove.o)
                              /usr/lib/gcc/arm-none-eabi/4.9.3/../../../arm-none-eabi/lib/armv6-m/libc_nano.a(lib_a-fvwrite.o) (memmove)
/usr/lib/gcc/arm-none-eabi/4.9.3/../../../arm-none-eabi/lib/armv6-m/libc_nano.a(lib_a-nano-freer.o)
                              /usr/lib/gcc/arm-none-eabi/4.9.3/../../../arm-none-eabi/lib/armv6-m/libc_nano.a(lib_a-wsetup.o) (_free_r)
/usr/lib/gcc/arm-none-eabi/4.9.3/../../../arm-none-eabi/lib/armv6-m/libc_nano.a(lib_a-nano-reallocr.o)
                              /usr/lib/gcc/arm-none-eabi/4.9.3/../../../arm-none-eabi/lib/armv6-m/libc_nano.a(lib_a-fvwrite.o) (_realloc_r)
/usr/lib/gcc/arm-none-eabi/4.9.3/../../../arm-none-eabi/lib/armv6-m/libc_nano.a(lib_a-readr.o)
                              /usr/lib/gcc/arm-none-eabi/4.9.3/../../../arm-none-eabi/lib/armv6-m/libc_nano.a(lib_a-stdio.o) (_read_r)
/usr/lib/gcc/arm-none-eabi/4.9.3/../../../arm-none-eabi/lib/armv6-m/libc_nano.a(lib_a-reent.o)
                              /usr/lib/gcc/arm-none-eabi/4.9.3/../../../arm-none-eabi/lib/armv6-m/libc_nano.a(lib_a-sbrkr.o) (errno)
/usr/lib/gcc/arm-none-eabi/4.9.3/../../../arm-none-eabi/lib/armv6-m/libc_nano.a(lib_a-fstatr.o)
                              /usr/lib/gcc/arm-none-eabi/4.9.3/../../../arm-none-eabi/lib/armv6-m/libc_nano.a(lib_a-makebuf.o) (_fstat_r)
/usr/lib/gcc/arm-none-eabi/4.9.3/../../../arm-none-eabi/lib/armv6-m/libc_nano.a(lib_a-isattyr.o)
                              /usr/lib/gcc/arm-none-eabi/4.9.3/../../../arm-none-eabi/lib/armv6-m/libc_nano.a(lib_a-makebuf.o) (_isatty_r)
/usr/lib/gcc/arm-none-eabi/4.9.3/../../../arm-none-eabi/lib/armv6-m/libc_nano.a(lib_a-nano-msizer.o)
                              /usr/lib/gcc/arm-none-eabi/4.9.3/../../../arm-none-eabi/lib/armv6-m/libc_nano.a(lib_a-nano-reallocr.o) (_malloc_usable_size_r)
/usr/lib/gcc/arm-none-eabi/4.9.3/../../../arm-none-eabi/lib/armv6-m/libnosys.a(close.o)
                              /usr/lib/gcc/arm-none-eabi/4.9.3/../../../arm-none-eabi/lib/armv6-m/libc_nano.a(lib_a-closer.o) (_close)
/usr/lib/gcc/arm-none-eabi/4.9.3/../../../arm-none-eabi/lib/armv6-m/libnosys.a(fstat.o)
                              /usr/lib/gcc/arm-none-eabi/4.9.3/../../../arm-none-eabi/lib/armv6-m/libc_nano.a(lib_a-fstatr.o) (_fstat)
/usr/lib/gcc/arm-none-eabi/4.9.3/../../../arm-none-eabi/lib/armv6-m/libnosys.a(isatty.o)
                              /usr/lib/gcc/arm-none-eabi/4.9.3/../../../arm-none-eabi/lib/armv6-m/libc_nano.a(lib_a-isattyr.o) (_isatty)
/usr/lib/gcc/arm-none-eabi/4.9.3/../../../arm-none-eabi/lib/armv6-m/libnosys.a(lseek.o)
                              /usr/lib/gcc/arm-none-eabi/4.9.3/../../../arm-none-eabi/lib/armv6-m/libc_nano.a(lib_a-lseekr.o) (_lseek)
/usr/lib/gcc/arm-none-eabi/4.9.3/../../../arm-none-eabi/lib/armv6-m/libnosys.a(read.o)
                              /usr/lib/gcc/arm-none-eabi/4.9.3/../../../arm-none-eabi/lib/armv6-m/libc_nano.a(lib_a-readr.o) (_read)
/usr/lib/gcc/arm-none-eabi/4.9.3/../../../arm-none-eabi/lib/armv6-m/libnosys.a(sbrk.o)
                              /usr/lib/gcc/arm-none-eabi/4.9.3/../../../arm-none-eabi/lib/armv6-m/libc_nano.a(lib_a-sbrkr.o) (_sbrk)
/usr/lib/gcc/arm-none-eabi/4.9.3/../../../arm-none-eabi/lib/armv6-m/libnosys.a(write.o)
                              /usr/lib/gcc/arm-none-eabi/4.9.3/../../../arm-none-eabi/lib/armv6-m/libc_nano.a(lib_a-writer.o) (_write)
/usr/lib/gcc/arm-none-eabi/4.9.3/../../../arm-none-eabi/lib/armv6-m/libnosys.a(_exit.o)
                              /usr/lib/gcc/arm-none-eabi/4.9.3/../../../arm-none-eabi/lib/armv6-m/libc_nano.a(lib_a-exit.o) (_exit)

Allocating common symbols
Common symbol       size              file

utilcrc8            0x10              src/ow/crcutil.o
errno               0x4               /usr/lib/gcc/arm-none-eabi/4.9.3/../../../arm-none-eabi/lib/armv6-m/libc_nano.a(lib_a-reent.o)
rx_data             0x23              src/swd.o
SerialNum           0x80              src/ow/ownet.o
tx_data             0x23              src/swd.o
utilcrc16           0x20              src/ow/crcutil.o

Discarded input sections

 .group         0x0000000000000000        0x8 src/ble/ble.o
 .group         0x0000000000000000        0x8 src/ble/ble.o
 .group         0x0000000000000000        0x8 src/ble/ble.o
 .group         0x0000000000000000        0x8 src/ble/ble.o
 .group         0x0000000000000000        0x8 src/ble/ble.o
 .group         0x0000000000000000        0x8 src/ble/ble.o
 .group         0x0000000000000000        0x8 src/ble/ble.o
 .group         0x0000000000000000        0x8 src/ble/ble.o
 .group         0x0000000000000000        0x8 src/ble/ble.o
 .group         0x0000000000000000        0x8 src/ble/ble.o
 .group         0x0000000000000000        0x8 src/ble/ble.o
 .group         0x0000000000000000        0x8 src/ble/ble.o
 .group         0x0000000000000000        0x8 src/ble/ble.o
 .group         0x0000000000000000        0x8 src/ble/ble.o
 .group         0x0000000000000000        0x8 src/ble/ble.o
 .group         0x0000000000000000        0x8 src/ble/ble.o
 .group         0x0000000000000000        0x8 src/ble/ble.o
 .group         0x0000000000000000        0x8 src/ble/ble.o
 .group         0x0000000000000000        0x8 src/ble/ble.o
 .group         0x0000000000000000        0x8 src/ble/ble.o
 .group         0x0000000000000000        0x8 src/ble/ble.o
 .group         0x0000000000000000        0x8 src/ble/ble.o
 .group         0x0000000000000000        0x8 src/ble/ble.o
 .group         0x0000000000000000        0x8 src/ble/ble.o
 .group         0x0000000000000000        0x8 src/ble/ble.o
 .group         0x0000000000000000        0x8 src/ble/ble.o
 .group         0x0000000000000000        0x8 src/ble/ble.o
 .group         0x0000000000000000        0x8 src/ble/ble.o
 .group         0x0000000000000000        0x8 src/ble/ble.o
 .group         0x0000000000000000        0x8 src/ble/ble.o
 .group         0x0000000000000000        0x8 src/ble/ble.o
 .group         0x0000000000000000        0x8 src/ble/ble.o
 .group         0x0000000000000000        0x8 src/ble/ble.o
 .group         0x0000000000000000        0x8 src/ble/ble.o
 .group         0x0000000000000000        0x8 src/ble/ble.o
 .group         0x0000000000000000        0x8 src/ble/ble.o
 .group         0x0000000000000000        0x8 src/ble/ble.o
 .group         0x0000000000000000        0x8 src/ble/ble.o
 .group         0x0000000000000000        0x8 src/ble/ble.o
 .group         0x0000000000000000        0x8 src/ble/ble.o
 .group         0x0000000000000000        0x8 src/ble/ble.o
 .group         0x0000000000000000        0x8 src/ble/ble.o
 .group         0x0000000000000000        0x8 src/ble/ble.o
 .group         0x0000000000000000        0x8 src/ble/ble.o
 .group         0x0000000000000000        0x8 src/ble/ble.o
 .group         0x0000000000000000        0x8 src/ble/ble.o
 .group         0x0000000000000000        0x8 src/ble/ble.o
 .group         0x0000000000000000        0x8 src/ble/ble.o
 .group         0x0000000000000000        0x8 src/ble/ble.o
 .group         0x0000000000000000        0x8 src/ble/ble.o
 .group         0x0000000000000000        0x8 src/ble/ble.o
 .group         0x0000000000000000        0x8 src/ble/ble.o
 .group         0x0000000000000000        0x8 src/ble/ble.o
 .group         0x0000000000000000        0x8 src/ble/ble.o
 .group         0x0000000000000000        0x8 src/ble/ble.o
 .group         0x0000000000000000        0x8 src/ble/ble.o
 .group         0x0000000000000000        0x8 src/ble/ble.o
 .group         0x0000000000000000        0x8 src/ble/ble.o
 .group         0x0000000000000000        0x8 src/ble/ble.o
 .group         0x0000000000000000        0x8 src/ble/ble.o
 .group         0x0000000000000000        0x8 src/ble/ble.o
 .group         0x0000000000000000        0x8 src/ble/ble.o
 .group         0x0000000000000000        0x8 src/ble/ble.o
 .group         0x0000000000000000        0x8 src/ble/ble.o
 .group         0x0000000000000000        0x8 src/ble/ble.o
 .group         0x0000000000000000        0x8 src/ble/ble.o
 .group         0x0000000000000000        0x8 src/ble/ble.o
 .group         0x0000000000000000        0x8 src/ble/ble.o
 .group         0x0000000000000000        0x8 src/ble/ble.o
 .group         0x0000000000000000        0x8 src/ble/ble_crazyflies.o
 .group         0x0000000000000000        0x8 src/ble/ble_crazyflies.o
 .group         0x0000000000000000        0x8 src/ble/ble_crazyflies.o
 .group         0x0000000000000000        0x8 src/ble/ble_crazyflies.o
 .group         0x0000000000000000        0x8 src/ble/ble_crazyflies.o
 .group         0x0000000000000000        0x8 src/ble/ble_crazyflies.o
 .group         0x0000000000000000        0x8 src/ble/ble_crazyflies.o
 .group         0x0000000000000000        0x8 src/ble/ble_crazyflies.o
 .group         0x0000000000000000        0x8 src/ble/ble_crazyflies.o
 .group         0x0000000000000000        0x8 src/ble/ble_crazyflies.o
 .group         0x0000000000000000        0x8 src/ble/ble_crazyflies.o
 .group         0x0000000000000000        0x8 src/ble/ble_crazyflies.o
 .group         0x0000000000000000        0x8 src/ble/ble_crazyflies.o
 .group         0x0000000000000000        0x8 src/ble/ble_crazyflies.o
 .group         0x0000000000000000        0x8 src/ble/ble_crazyflies.o
 .group         0x0000000000000000        0x8 src/ble/ble_crazyflies.o
 .group         0x0000000000000000        0x8 src/ble/ble_crazyflies.o
 .group         0x0000000000000000        0x8 src/ble/ble_crazyflies.o
 .group         0x0000000000000000        0x8 src/ble/ble_crazyflies.o
 .group         0x0000000000000000        0x8 src/ble/ble_crazyflies.o
 .group         0x0000000000000000        0x8 src/ble/ble_crazyflies.o
 .group         0x0000000000000000        0x8 src/ble/ble_crazyflies.o
 .group         0x0000000000000000        0x8 src/ble/ble_crazyflies.o
 .group         0x0000000000000000        0x8 src/ble/ble_crazyflies.o
 .group         0x0000000000000000        0x8 src/ble/ble_crazyflies.o
 .group         0x0000000000000000        0x8 src/ble/ble_crazyflies.o
 .group         0x0000000000000000        0x8 src/ble/ble_crazyflies.o
 .group         0x0000000000000000        0x8 src/ble/ble_crazyflies.o
 .group         0x0000000000000000        0x8 src/ble/ble_crazyflies.o
 .group         0x0000000000000000        0x8 src/ble/ble_crazyflies.o
 .group         0x0000000000000000        0x8 src/ble/ble_crazyflies.o
 .group         0x0000000000000000        0x8 src/ble/ble_crazyflies.o
 .group         0x0000000000000000        0x8 src/ble/ble_crazyflies.o
 .group         0x0000000000000000        0x8 src/ble/ble_crazyflies.o
 .group         0x0000000000000000        0x8 src/ble/ble_crazyflies.o
 .debug_macro   0x0000000000000000      0x850 src/ble/ble_crazyflies.o
 .debug_macro   0x0000000000000000       0x58 src/ble/ble_crazyflies.o
 .debug_macro   0x0000000000000000       0x22 src/ble/ble_crazyflies.o
 .debug_macro   0x0000000000000000       0x35 src/ble/ble_crazyflies.o
 .debug_macro   0x0000000000000000       0x9c src/ble/ble_crazyflies.o
 .debug_macro   0x0000000000000000       0x16 src/ble/ble_crazyflies.o
 .debug_macro   0x0000000000000000       0x52 src/ble/ble_crazyflies.o
 .debug_macro   0x0000000000000000       0x16 src/ble/ble_crazyflies.o
 .debug_macro   0x0000000000000000       0x43 src/ble/ble_crazyflies.o
 .debug_macro   0x0000000000000000      0x180 src/ble/ble_crazyflies.o
 .debug_macro   0x0000000000000000      0x27a src/ble/ble_crazyflies.o
 .debug_macro   0x0000000000000000       0x16 src/ble/ble_crazyflies.o
 .debug_macro   0x0000000000000000       0x29 src/ble/ble_crazyflies.o
 .debug_macro   0x0000000000000000       0x22 src/ble/ble_crazyflies.o
 .debug_macro   0x0000000000000000       0x35 src/ble/ble_crazyflies.o
 .debug_macro   0x0000000000000000       0xd6 src/ble/ble_crazyflies.o
 .debug_macro   0x0000000000000000       0xe3 src/ble/ble_crazyflies.o
 .debug_macro   0x0000000000000000       0x22 src/ble/ble_crazyflies.o
 .debug_macro   0x0000000000000000      0x1df src/ble/ble_crazyflies.o
 .debug_macro   0x0000000000000000       0x10 src/ble/ble_crazyflies.o
 .debug_macro   0x0000000000000000      0x308 src/ble/ble_crazyflies.o
 .debug_macro   0x0000000000000000       0x8e src/ble/ble_crazyflies.o
 .debug_macro   0x0000000000000000       0x34 src/ble/ble_crazyflies.o
 .debug_macro   0x0000000000000000       0x22 src/ble/ble_crazyflies.o
 .debug_macro   0x0000000000000000      0x1d5 src/ble/ble_crazyflies.o
 .debug_macro   0x0000000000000000       0x16 src/ble/ble_crazyflies.o
 .debug_macro   0x0000000000000000       0xb8 src/ble/ble_crazyflies.o
 .debug_macro   0x0000000000000000       0x1c src/ble/ble_crazyflies.o
 .debug_macro   0x0000000000000000       0x2e src/ble/ble_crazyflies.o
 .debug_macro   0x0000000000000000       0x28 src/ble/ble_crazyflies.o
 .group         0x0000000000000000        0x8 src/ble/timeslot.o
 .group         0x0000000000000000        0x8 src/ble/timeslot.o
 .group         0x0000000000000000        0x8 src/ble/timeslot.o
 .group         0x0000000000000000        0x8 src/ble/timeslot.o
 .group         0x0000000000000000        0x8 src/ble/timeslot.o
 .group         0x0000000000000000        0x8 src/ble/timeslot.o
 .group         0x0000000000000000        0x8 src/ble/timeslot.o
 .group         0x0000000000000000        0x8 src/ble/timeslot.o
 .group         0x0000000000000000        0x8 src/ble/timeslot.o
 .group         0x0000000000000000        0x8 src/ble/timeslot.o
 .group         0x0000000000000000        0x8 src/ble/timeslot.o
 .group         0x0000000000000000        0x8 src/ble/timeslot.o
 .group         0x0000000000000000        0x8 src/ble/timeslot.o
 .group         0x0000000000000000        0x8 src/ble/timeslot.o
 .group         0x0000000000000000        0x8 src/ble/timeslot.o
 .group         0x0000000000000000        0x8 src/ble/timeslot.o
 .group         0x0000000000000000        0x8 src/ble/timeslot.o
 .group         0x0000000000000000        0x8 src/ble/timeslot.o
 .group         0x0000000000000000        0x8 src/ble/timeslot.o
 .group         0x0000000000000000        0x8 src/ble/timeslot.o
 .group         0x0000000000000000        0x8 src/ble/timeslot.o
 .group         0x0000000000000000        0x8 src/ble/timeslot.o
 .group         0x0000000000000000        0x8 src/ble/timeslot.o
 .group         0x0000000000000000        0x8 src/ble/timeslot.o
 .group         0x0000000000000000        0x8 src/ble/timeslot.o
 .group         0x0000000000000000        0x8 src/ble/timeslot.o
 .group         0x0000000000000000        0x8 src/ble/timeslot.o
 .group         0x0000000000000000        0x8 src/ble/timeslot.o
 .group         0x0000000000000000        0x8 src/ble/timeslot.o
 .group         0x0000000000000000        0x8 src/ble/timeslot.o
 .group         0x0000000000000000        0x8 src/ble/timeslot.o
 .group         0x0000000000000000        0x8 src/ble/timeslot.o
 .group         0x0000000000000000        0x8 src/ble/timeslot.o
 .debug_macro   0x0000000000000000      0x850 src/ble/timeslot.o
 .debug_macro   0x0000000000000000       0x58 src/ble/timeslot.o
 .debug_macro   0x0000000000000000       0x22 src/ble/timeslot.o
 .debug_macro   0x0000000000000000       0x35 src/ble/timeslot.o
 .debug_macro   0x0000000000000000       0x9c src/ble/timeslot.o
 .debug_macro   0x0000000000000000       0x16 src/ble/timeslot.o
 .debug_macro   0x0000000000000000      0x10e src/ble/timeslot.o
 .debug_macro   0x0000000000000000       0x86 src/ble/timeslot.o
 .debug_macro   0x0000000000000000       0x4a src/ble/timeslot.o
 .debug_macro   0x0000000000000000       0x52 src/ble/timeslot.o
 .debug_macro   0x0000000000000000       0x16 src/ble/timeslot.o
 .debug_macro   0x0000000000000000       0x43 src/ble/timeslot.o
 .debug_macro   0x0000000000000000      0x180 src/ble/timeslot.o
 .debug_macro   0x0000000000000000      0x27a src/ble/timeslot.o
 .debug_macro   0x0000000000000000       0x16 src/ble/timeslot.o
 .debug_macro   0x0000000000000000       0x29 src/ble/timeslot.o
 .debug_macro   0x0000000000000000       0xe3 src/ble/timeslot.o
 .debug_macro   0x0000000000000000       0x22 src/ble/timeslot.o
 .debug_macro   0x0000000000000000      0x1df src/ble/timeslot.o
 .debug_macro   0x0000000000000000       0x22 src/ble/timeslot.o
 .debug_macro   0x0000000000000000       0x3a src/ble/timeslot.o
 .debug_macro   0x0000000000000000       0x1f src/ble/timeslot.o
 .debug_macro   0x0000000000000000      0x242 src/ble/timeslot.o
 .debug_macro   0x0000000000000000      0x1e0 src/ble/timeslot.o
 .debug_macro   0x0000000000000000     0x74a3 src/ble/timeslot.o
 .debug_macro   0x0000000000000000      0x963 src/ble/timeslot.o
 .debug_macro   0x0000000000000000       0x10 src/ble/timeslot.o
 .debug_macro   0x0000000000000000       0x22 src/ble/timeslot.o
 .debug_macro   0x0000000000000000       0x10 src/ble/timeslot.o
 .debug_macro   0x0000000000000000       0x8e src/ble/timeslot.o
 .debug_macro   0x0000000000000000       0x64 src/ble/timeslot.o
 .debug_macro   0x0000000000000000       0x28 src/ble/timeslot.o
 .group         0x0000000000000000        0x8 nrf51_sdk/nrf51822/Source/ble/ble_advdata.o
 .group         0x0000000000000000        0x8 nrf51_sdk/nrf51822/Source/ble/ble_advdata.o
 .group         0x0000000000000000        0x8 nrf51_sdk/nrf51822/Source/ble/ble_advdata.o
 .group         0x0000000000000000        0x8 nrf51_sdk/nrf51822/Source/ble/ble_advdata.o
 .group         0x0000000000000000        0x8 nrf51_sdk/nrf51822/Source/ble/ble_advdata.o
 .group         0x0000000000000000        0x8 nrf51_sdk/nrf51822/Source/ble/ble_advdata.o
 .group         0x0000000000000000        0x8 nrf51_sdk/nrf51822/Source/ble/ble_advdata.o
 .group         0x0000000000000000        0x8 nrf51_sdk/nrf51822/Source/ble/ble_advdata.o
 .group         0x0000000000000000        0x8 nrf51_sdk/nrf51822/Source/ble/ble_advdata.o
 .group         0x0000000000000000        0x8 nrf51_sdk/nrf51822/Source/ble/ble_advdata.o
 .group         0x0000000000000000        0x8 nrf51_sdk/nrf51822/Source/ble/ble_advdata.o
 .group         0x0000000000000000        0x8 nrf51_sdk/nrf51822/Source/ble/ble_advdata.o
 .group         0x0000000000000000        0x8 nrf51_sdk/nrf51822/Source/ble/ble_advdata.o
 .group         0x0000000000000000        0x8 nrf51_sdk/nrf51822/Source/ble/ble_advdata.o
 .group         0x0000000000000000        0x8 nrf51_sdk/nrf51822/Source/ble/ble_advdata.o
 .group         0x0000000000000000        0x8 nrf51_sdk/nrf51822/Source/ble/ble_advdata.o
 .group         0x0000000000000000        0x8 nrf51_sdk/nrf51822/Source/ble/ble_advdata.o
 .group         0x0000000000000000        0x8 nrf51_sdk/nrf51822/Source/ble/ble_advdata.o
 .group         0x0000000000000000        0x8 nrf51_sdk/nrf51822/Source/ble/ble_advdata.o
 .group         0x0000000000000000        0x8 nrf51_sdk/nrf51822/Source/ble/ble_advdata.o
 .group         0x0000000000000000        0x8 nrf51_sdk/nrf51822/Source/ble/ble_advdata.o
 .group         0x0000000000000000        0x8 nrf51_sdk/nrf51822/Source/ble/ble_advdata.o
 .group         0x0000000000000000        0x8 nrf51_sdk/nrf51822/Source/ble/ble_advdata.o
 .group         0x0000000000000000        0x8 nrf51_sdk/nrf51822/Source/ble/ble_advdata.o
 .group         0x0000000000000000        0x8 nrf51_sdk/nrf51822/Source/ble/ble_advdata.o
 .group         0x0000000000000000        0x8 nrf51_sdk/nrf51822/Source/ble/ble_advdata.o
 .group         0x0000000000000000        0x8 nrf51_sdk/nrf51822/Source/ble/ble_advdata.o
 .group         0x0000000000000000        0x8 nrf51_sdk/nrf51822/Source/ble/ble_advdata.o
 .group         0x0000000000000000        0x8 nrf51_sdk/nrf51822/Source/ble/ble_advdata.o
 .group         0x0000000000000000        0x8 nrf51_sdk/nrf51822/Source/ble/ble_advdata.o
 .group         0x0000000000000000        0x8 nrf51_sdk/nrf51822/Source/ble/ble_advdata.o
 .group         0x0000000000000000        0x8 nrf51_sdk/nrf51822/Source/ble/ble_advdata.o
 .group         0x0000000000000000        0x8 nrf51_sdk/nrf51822/Source/ble/ble_advdata.o
 .debug_macro   0x0000000000000000      0x850 nrf51_sdk/nrf51822/Source/ble/ble_advdata.o
 .debug_macro   0x0000000000000000       0x22 nrf51_sdk/nrf51822/Source/ble/ble_advdata.o
 .debug_macro   0x0000000000000000       0x44 nrf51_sdk/nrf51822/Source/ble/ble_advdata.o
 .debug_macro   0x0000000000000000       0xe3 nrf51_sdk/nrf51822/Source/ble/ble_advdata.o
 .debug_macro   0x0000000000000000       0x22 nrf51_sdk/nrf51822/Source/ble/ble_advdata.o
 .debug_macro   0x0000000000000000      0x1df nrf51_sdk/nrf51822/Source/ble/ble_advdata.o
 .debug_macro   0x0000000000000000       0x22 nrf51_sdk/nrf51822/Source/ble/ble_advdata.o
 .debug_macro   0x0000000000000000       0x58 nrf51_sdk/nrf51822/Source/ble/ble_advdata.o
 .debug_macro   0x0000000000000000       0x35 nrf51_sdk/nrf51822/Source/ble/ble_advdata.o
 .debug_macro   0x0000000000000000       0x9c nrf51_sdk/nrf51822/Source/ble/ble_advdata.o
 .debug_macro   0x0000000000000000      0x16d nrf51_sdk/nrf51822/Source/ble/ble_advdata.o
 .debug_macro   0x0000000000000000       0x52 nrf51_sdk/nrf51822/Source/ble/ble_advdata.o
 .debug_macro   0x0000000000000000       0x16 nrf51_sdk/nrf51822/Source/ble/ble_advdata.o
 .debug_macro   0x0000000000000000       0x43 nrf51_sdk/nrf51822/Source/ble/ble_advdata.o
 .debug_macro   0x0000000000000000      0x180 nrf51_sdk/nrf51822/Source/ble/ble_advdata.o
 .debug_macro   0x0000000000000000      0x27a nrf51_sdk/nrf51822/Source/ble/ble_advdata.o
 .debug_macro   0x0000000000000000       0x10 nrf51_sdk/nrf51822/Source/ble/ble_advdata.o
 .debug_macro   0x0000000000000000       0x35 nrf51_sdk/nrf51822/Source/ble/ble_advdata.o
 .debug_macro   0x0000000000000000       0xd6 nrf51_sdk/nrf51822/Source/ble/ble_advdata.o
 .debug_macro   0x0000000000000000      0x1e1 nrf51_sdk/nrf51822/Source/ble/ble_advdata.o
 .debug_macro   0x0000000000000000       0x10 nrf51_sdk/nrf51822/Source/ble/ble_advdata.o
 .debug_macro   0x0000000000000000      0x308 nrf51_sdk/nrf51822/Source/ble/ble_advdata.o
 .debug_macro   0x0000000000000000       0x8e nrf51_sdk/nrf51822/Source/ble/ble_advdata.o
 .debug_macro   0x0000000000000000       0x34 nrf51_sdk/nrf51822/Source/ble/ble_advdata.o
 .debug_macro   0x0000000000000000       0x22 nrf51_sdk/nrf51822/Source/ble/ble_advdata.o
 .debug_macro   0x0000000000000000      0x1d5 nrf51_sdk/nrf51822/Source/ble/ble_advdata.o
 .debug_macro   0x0000000000000000       0x16 nrf51_sdk/nrf51822/Source/ble/ble_advdata.o
 .debug_macro   0x0000000000000000       0xb8 nrf51_sdk/nrf51822/Source/ble/ble_advdata.o
 .debug_macro   0x0000000000000000       0x1c nrf51_sdk/nrf51822/Source/ble/ble_advdata.o
 .debug_macro   0x0000000000000000       0x22 nrf51_sdk/nrf51822/Source/ble/ble_advdata.o
 .debug_macro   0x0000000000000000       0xf4 nrf51_sdk/nrf51822/Source/ble/ble_advdata.o
 .debug_macro   0x0000000000000000      0x245 nrf51_sdk/nrf51822/Source/ble/ble_advdata.o
 .group         0x0000000000000000        0x8 nrf51_sdk/nrf51822/Source/ble/ble_conn_params.o
 .group         0x0000000000000000        0x8 nrf51_sdk/nrf51822/Source/ble/ble_conn_params.o
 .group         0x0000000000000000        0x8 nrf51_sdk/nrf51822/Source/ble/ble_conn_params.o
 .group         0x0000000000000000        0x8 nrf51_sdk/nrf51822/Source/ble/ble_conn_params.o
 .group         0x0000000000000000        0x8 nrf51_sdk/nrf51822/Source/ble/ble_conn_params.o
 .group         0x0000000000000000        0x8 nrf51_sdk/nrf51822/Source/ble/ble_conn_params.o
 .group         0x0000000000000000        0x8 nrf51_sdk/nrf51822/Source/ble/ble_conn_params.o
 .group         0x0000000000000000        0x8 nrf51_sdk/nrf51822/Source/ble/ble_conn_params.o
 .group         0x0000000000000000        0x8 nrf51_sdk/nrf51822/Source/ble/ble_conn_params.o
 .group         0x0000000000000000        0x8 nrf51_sdk/nrf51822/Source/ble/ble_conn_params.o
 .group         0x0000000000000000        0x8 nrf51_sdk/nrf51822/Source/ble/ble_conn_params.o
 .group         0x0000000000000000        0x8 nrf51_sdk/nrf51822/Source/ble/ble_conn_params.o
 .group         0x0000000000000000        0x8 nrf51_sdk/nrf51822/Source/ble/ble_conn_params.o
 .group         0x0000000000000000        0x8 nrf51_sdk/nrf51822/Source/ble/ble_conn_params.o
 .group         0x0000000000000000        0x8 nrf51_sdk/nrf51822/Source/ble/ble_conn_params.o
 .group         0x0000000000000000        0x8 nrf51_sdk/nrf51822/Source/ble/ble_conn_params.o
 .group         0x0000000000000000        0x8 nrf51_sdk/nrf51822/Source/ble/ble_conn_params.o
 .group         0x0000000000000000        0x8 nrf51_sdk/nrf51822/Source/ble/ble_conn_params.o
 .group         0x0000000000000000        0x8 nrf51_sdk/nrf51822/Source/ble/ble_conn_params.o
 .group         0x0000000000000000        0x8 nrf51_sdk/nrf51822/Source/ble/ble_conn_params.o
 .group         0x0000000000000000        0x8 nrf51_sdk/nrf51822/Source/ble/ble_conn_params.o
 .group         0x0000000000000000        0x8 nrf51_sdk/nrf51822/Source/ble/ble_conn_params.o
 .group         0x0000000000000000        0x8 nrf51_sdk/nrf51822/Source/ble/ble_conn_params.o
 .group         0x0000000000000000        0x8 nrf51_sdk/nrf51822/Source/ble/ble_conn_params.o
 .group         0x0000000000000000        0x8 nrf51_sdk/nrf51822/Source/ble/ble_conn_params.o
 .group         0x0000000000000000        0x8 nrf51_sdk/nrf51822/Source/ble/ble_conn_params.o
 .group         0x0000000000000000        0x8 nrf51_sdk/nrf51822/Source/ble/ble_conn_params.o
 .group         0x0000000000000000        0x8 nrf51_sdk/nrf51822/Source/ble/ble_conn_params.o
 .group         0x0000000000000000        0x8 nrf51_sdk/nrf51822/Source/ble/ble_conn_params.o
 .group         0x0000000000000000        0x8 nrf51_sdk/nrf51822/Source/ble/ble_conn_params.o
 .group         0x0000000000000000        0x8 nrf51_sdk/nrf51822/Source/ble/ble_conn_params.o
 .group         0x0000000000000000        0x8 nrf51_sdk/nrf51822/Source/ble/ble_conn_params.o
 .group         0x0000000000000000        0x8 nrf51_sdk/nrf51822/Source/ble/ble_conn_params.o
 .group         0x0000000000000000        0x8 nrf51_sdk/nrf51822/Source/ble/ble_conn_params.o
 .group         0x0000000000000000        0x8 nrf51_sdk/nrf51822/Source/ble/ble_conn_params.o
 .group         0x0000000000000000        0x8 nrf51_sdk/nrf51822/Source/ble/ble_conn_params.o
 .group         0x0000000000000000        0x8 nrf51_sdk/nrf51822/Source/ble/ble_conn_params.o
 .group         0x0000000000000000        0x8 nrf51_sdk/nrf51822/Source/ble/ble_conn_params.o
 .group         0x0000000000000000        0x8 nrf51_sdk/nrf51822/Source/ble/ble_conn_params.o
 .group         0x0000000000000000        0x8 nrf51_sdk/nrf51822/Source/ble/ble_conn_params.o
 .group         0x0000000000000000        0x8 nrf51_sdk/nrf51822/Source/ble/ble_conn_params.o
 .group         0x0000000000000000        0x8 nrf51_sdk/nrf51822/Source/ble/ble_conn_params.o
 .group         0x0000000000000000        0x8 nrf51_sdk/nrf51822/Source/ble/ble_conn_params.o
 .group         0x0000000000000000        0x8 nrf51_sdk/nrf51822/Source/ble/ble_conn_params.o
 .group         0x0000000000000000        0x8 nrf51_sdk/nrf51822/Source/ble/ble_conn_params.o
 .group         0x0000000000000000        0x8 nrf51_sdk/nrf51822/Source/ble/ble_conn_params.o
 .group         0x0000000000000000        0x8 nrf51_sdk/nrf51822/Source/ble/ble_conn_params.o
 .debug_macro   0x0000000000000000      0x850 nrf51_sdk/nrf51822/Source/ble/ble_conn_params.o
 .debug_macro   0x0000000000000000       0x22 nrf51_sdk/nrf51822/Source/ble/ble_conn_params.o
 .debug_macro   0x0000000000000000       0x44 nrf51_sdk/nrf51822/Source/ble/ble_conn_params.o
 .debug_macro   0x0000000000000000       0xe3 nrf51_sdk/nrf51822/Source/ble/ble_conn_params.o
 .debug_macro   0x0000000000000000       0x22 nrf51_sdk/nrf51822/Source/ble/ble_conn_params.o
 .debug_macro   0x0000000000000000      0x1df nrf51_sdk/nrf51822/Source/ble/ble_conn_params.o
 .debug_macro   0x0000000000000000       0xd6 nrf51_sdk/nrf51822/Source/ble/ble_conn_params.o
 .debug_macro   0x0000000000000000      0x1e1 nrf51_sdk/nrf51822/Source/ble/ble_conn_params.o
 .debug_macro   0x0000000000000000       0x10 nrf51_sdk/nrf51822/Source/ble/ble_conn_params.o
 .debug_macro   0x0000000000000000      0x308 nrf51_sdk/nrf51822/Source/ble/ble_conn_params.o
 .debug_macro   0x0000000000000000       0x8e nrf51_sdk/nrf51822/Source/ble/ble_conn_params.o
 .debug_macro   0x0000000000000000       0x34 nrf51_sdk/nrf51822/Source/ble/ble_conn_params.o
 .debug_macro   0x0000000000000000       0x22 nrf51_sdk/nrf51822/Source/ble/ble_conn_params.o
 .debug_macro   0x0000000000000000      0x1d5 nrf51_sdk/nrf51822/Source/ble/ble_conn_params.o
 .debug_macro   0x0000000000000000       0x16 nrf51_sdk/nrf51822/Source/ble/ble_conn_params.o
 .debug_macro   0x0000000000000000       0xb8 nrf51_sdk/nrf51822/Source/ble/ble_conn_params.o
 .debug_macro   0x0000000000000000       0x1c nrf51_sdk/nrf51822/Source/ble/ble_conn_params.o
 .debug_macro   0x0000000000000000       0x22 nrf51_sdk/nrf51822/Source/ble/ble_conn_params.o
 .debug_macro   0x0000000000000000       0x1c nrf51_sdk/nrf51822/Source/ble/ble_conn_params.o
 .debug_macro   0x0000000000000000       0x22 nrf51_sdk/nrf51822/Source/ble/ble_conn_params.o
 .debug_macro   0x0000000000000000      0x245 nrf51_sdk/nrf51822/Source/ble/ble_conn_params.o
 .debug_macro   0x0000000000000000       0x58 nrf51_sdk/nrf51822/Source/ble/ble_conn_params.o
 .debug_macro   0x0000000000000000       0x35 nrf51_sdk/nrf51822/Source/ble/ble_conn_params.o
 .debug_macro   0x0000000000000000       0x9c nrf51_sdk/nrf51822/Source/ble/ble_conn_params.o
 .debug_macro   0x0000000000000000       0x16 nrf51_sdk/nrf51822/Source/ble/ble_conn_params.o
 .debug_macro   0x0000000000000000      0x10e nrf51_sdk/nrf51822/Source/ble/ble_conn_params.o
 .debug_macro   0x0000000000000000       0x86 nrf51_sdk/nrf51822/Source/ble/ble_conn_params.o
 .debug_macro   0x0000000000000000       0x52 nrf51_sdk/nrf51822/Source/ble/ble_conn_params.o
 .debug_macro   0x0000000000000000       0x16 nrf51_sdk/nrf51822/Source/ble/ble_conn_params.o
 .debug_macro   0x0000000000000000       0x43 nrf51_sdk/nrf51822/Source/ble/ble_conn_params.o
 .debug_macro   0x0000000000000000      0x180 nrf51_sdk/nrf51822/Source/ble/ble_conn_params.o
 .debug_macro   0x0000000000000000      0x27a nrf51_sdk/nrf51822/Source/ble/ble_conn_params.o
 .debug_macro   0x0000000000000000       0x16 nrf51_sdk/nrf51822/Source/ble/ble_conn_params.o
 .debug_macro   0x0000000000000000       0x29 nrf51_sdk/nrf51822/Source/ble/ble_conn_params.o
 .debug_macro   0x0000000000000000       0xf4 nrf51_sdk/nrf51822/Source/ble/ble_conn_params.o
 .debug_macro   0x0000000000000000       0x1c nrf51_sdk/nrf51822/Source/ble/ble_conn_params.o
 .debug_macro   0x0000000000000000       0x35 nrf51_sdk/nrf51822/Source/ble/ble_conn_params.o
 .debug_macro   0x0000000000000000       0x10 nrf51_sdk/nrf51822/Source/ble/ble_conn_params.o
 .debug_macro   0x0000000000000000       0x10 nrf51_sdk/nrf51822/Source/ble/ble_conn_params.o
 .debug_macro   0x0000000000000000       0x22 nrf51_sdk/nrf51822/Source/ble/ble_conn_params.o
 .debug_macro   0x0000000000000000       0xbe nrf51_sdk/nrf51822/Source/ble/ble_conn_params.o
 .debug_macro   0x0000000000000000       0x16 nrf51_sdk/nrf51822/Source/ble/ble_conn_params.o
 .debug_macro   0x0000000000000000      0x197 nrf51_sdk/nrf51822/Source/ble/ble_conn_params.o
 .debug_macro   0x0000000000000000       0x16 nrf51_sdk/nrf51822/Source/ble/ble_conn_params.o
 .debug_macro   0x0000000000000000       0x1c nrf51_sdk/nrf51822/Source/ble/ble_conn_params.o
 .debug_macro   0x0000000000000000       0x41 nrf51_sdk/nrf51822/Source/ble/ble_conn_params.o
 .group         0x0000000000000000        0x8 nrf51_sdk/nrf51822/Source/ble/ble_services/ble_srv_common.o
 .group         0x0000000000000000        0x8 nrf51_sdk/nrf51822/Source/ble/ble_services/ble_srv_common.o
 .group         0x0000000000000000        0x8 nrf51_sdk/nrf51822/Source/ble/ble_services/ble_srv_common.o
 .group         0x0000000000000000        0x8 nrf51_sdk/nrf51822/Source/ble/ble_services/ble_srv_common.o
 .group         0x0000000000000000        0x8 nrf51_sdk/nrf51822/Source/ble/ble_services/ble_srv_common.o
 .group         0x0000000000000000        0x8 nrf51_sdk/nrf51822/Source/ble/ble_services/ble_srv_common.o
 .group         0x0000000000000000        0x8 nrf51_sdk/nrf51822/Source/ble/ble_services/ble_srv_common.o
 .group         0x0000000000000000        0x8 nrf51_sdk/nrf51822/Source/ble/ble_services/ble_srv_common.o
 .group         0x0000000000000000        0x8 nrf51_sdk/nrf51822/Source/ble/ble_services/ble_srv_common.o
 .group         0x0000000000000000        0x8 nrf51_sdk/nrf51822/Source/ble/ble_services/ble_srv_common.o
 .group         0x0000000000000000        0x8 nrf51_sdk/nrf51822/Source/ble/ble_services/ble_srv_common.o
 .group         0x0000000000000000        0x8 nrf51_sdk/nrf51822/Source/ble/ble_services/ble_srv_common.o
 .group         0x0000000000000000        0x8 nrf51_sdk/nrf51822/Source/ble/ble_services/ble_srv_common.o
 .group         0x0000000000000000        0x8 nrf51_sdk/nrf51822/Source/ble/ble_services/ble_srv_common.o
 .group         0x0000000000000000        0x8 nrf51_sdk/nrf51822/Source/ble/ble_services/ble_srv_common.o
 .group         0x0000000000000000        0x8 nrf51_sdk/nrf51822/Source/ble/ble_services/ble_srv_common.o
 .group         0x0000000000000000        0x8 nrf51_sdk/nrf51822/Source/ble/ble_services/ble_srv_common.o
 .group         0x0000000000000000        0x8 nrf51_sdk/nrf51822/Source/ble/ble_services/ble_srv_common.o
 .group         0x0000000000000000        0x8 nrf51_sdk/nrf51822/Source/ble/ble_services/ble_srv_common.o
 .group         0x0000000000000000        0x8 nrf51_sdk/nrf51822/Source/ble/ble_services/ble_srv_common.o
 .group         0x0000000000000000        0x8 nrf51_sdk/nrf51822/Source/ble/ble_services/ble_srv_common.o
 .group         0x0000000000000000        0x8 nrf51_sdk/nrf51822/Source/ble/ble_services/ble_srv_common.o
 .group         0x0000000000000000        0x8 nrf51_sdk/nrf51822/Source/ble/ble_services/ble_srv_common.o
 .group         0x0000000000000000        0x8 nrf51_sdk/nrf51822/Source/ble/ble_services/ble_srv_common.o
 .group         0x0000000000000000        0x8 nrf51_sdk/nrf51822/Source/ble/ble_services/ble_srv_common.o
 .group         0x0000000000000000        0x8 nrf51_sdk/nrf51822/Source/ble/ble_services/ble_srv_common.o
 .group         0x0000000000000000        0x8 nrf51_sdk/nrf51822/Source/ble/ble_services/ble_srv_common.o
 .group         0x0000000000000000        0x8 nrf51_sdk/nrf51822/Source/ble/ble_services/ble_srv_common.o
 .group         0x0000000000000000        0x8 nrf51_sdk/nrf51822/Source/ble/ble_services/ble_srv_common.o
 .debug_macro   0x0000000000000000      0x850 nrf51_sdk/nrf51822/Source/ble/ble_services/ble_srv_common.o
 .debug_macro   0x0000000000000000       0x22 nrf51_sdk/nrf51822/Source/ble/ble_services/ble_srv_common.o
 .debug_macro   0x0000000000000000       0x44 nrf51_sdk/nrf51822/Source/ble/ble_services/ble_srv_common.o
 .debug_macro   0x0000000000000000       0xe3 nrf51_sdk/nrf51822/Source/ble/ble_services/ble_srv_common.o
 .debug_macro   0x0000000000000000       0x22 nrf51_sdk/nrf51822/Source/ble/ble_services/ble_srv_common.o
 .debug_macro   0x0000000000000000      0x1df nrf51_sdk/nrf51822/Source/ble/ble_services/ble_srv_common.o
 .debug_macro   0x0000000000000000       0x22 nrf51_sdk/nrf51822/Source/ble/ble_services/ble_srv_common.o
 .debug_macro   0x0000000000000000      0x1e1 nrf51_sdk/nrf51822/Source/ble/ble_services/ble_srv_common.o
 .debug_macro   0x0000000000000000       0x1c nrf51_sdk/nrf51822/Source/ble/ble_services/ble_srv_common.o
 .debug_macro   0x0000000000000000       0x22 nrf51_sdk/nrf51822/Source/ble/ble_services/ble_srv_common.o
 .debug_macro   0x0000000000000000       0xd6 nrf51_sdk/nrf51822/Source/ble/ble_services/ble_srv_common.o
 .debug_macro   0x0000000000000000       0x10 nrf51_sdk/nrf51822/Source/ble/ble_services/ble_srv_common.o
 .debug_macro   0x0000000000000000      0x308 nrf51_sdk/nrf51822/Source/ble/ble_services/ble_srv_common.o
 .debug_macro   0x0000000000000000      0x1d5 nrf51_sdk/nrf51822/Source/ble/ble_services/ble_srv_common.o
 .debug_macro   0x0000000000000000      0x245 nrf51_sdk/nrf51822/Source/ble/ble_services/ble_srv_common.o
 .debug_macro   0x0000000000000000       0x58 nrf51_sdk/nrf51822/Source/ble/ble_services/ble_srv_common.o
 .debug_macro   0x0000000000000000       0x35 nrf51_sdk/nrf51822/Source/ble/ble_services/ble_srv_common.o
 .debug_macro   0x0000000000000000       0x9c nrf51_sdk/nrf51822/Source/ble/ble_services/ble_srv_common.o
 .debug_macro   0x0000000000000000      0x16d nrf51_sdk/nrf51822/Source/ble/ble_services/ble_srv_common.o
 .debug_macro   0x0000000000000000       0x52 nrf51_sdk/nrf51822/Source/ble/ble_services/ble_srv_common.o
 .debug_macro   0x0000000000000000       0x16 nrf51_sdk/nrf51822/Source/ble/ble_services/ble_srv_common.o
 .debug_macro   0x0000000000000000       0x43 nrf51_sdk/nrf51822/Source/ble/ble_services/ble_srv_common.o
 .debug_macro   0x0000000000000000      0x180 nrf51_sdk/nrf51822/Source/ble/ble_services/ble_srv_common.o
 .debug_macro   0x0000000000000000      0x27a nrf51_sdk/nrf51822/Source/ble/ble_services/ble_srv_common.o
 .debug_macro   0x0000000000000000       0x10 nrf51_sdk/nrf51822/Source/ble/ble_services/ble_srv_common.o
 .debug_macro   0x0000000000000000       0x35 nrf51_sdk/nrf51822/Source/ble/ble_services/ble_srv_common.o
 .debug_macro   0x0000000000000000       0xf4 nrf51_sdk/nrf51822/Source/ble/ble_services/ble_srv_common.o
 .debug_macro   0x0000000000000000       0x8e nrf51_sdk/nrf51822/Source/ble/ble_services/ble_srv_common.o
 .debug_macro   0x0000000000000000       0x16 nrf51_sdk/nrf51822/Source/ble/ble_services/ble_srv_common.o
 .group         0x0000000000000000        0x8 nrf51_sdk/nrf51822/Source/ble/ble_services/ble_dis.o
 .group         0x0000000000000000        0x8 nrf51_sdk/nrf51822/Source/ble/ble_services/ble_dis.o
 .group         0x0000000000000000        0x8 nrf51_sdk/nrf51822/Source/ble/ble_services/ble_dis.o
 .group         0x0000000000000000        0x8 nrf51_sdk/nrf51822/Source/ble/ble_services/ble_dis.o
 .group         0x0000000000000000        0x8 nrf51_sdk/nrf51822/Source/ble/ble_services/ble_dis.o
 .group         0x0000000000000000        0x8 nrf51_sdk/nrf51822/Source/ble/ble_services/ble_dis.o
 .group         0x0000000000000000        0x8 nrf51_sdk/nrf51822/Source/ble/ble_services/ble_dis.o
 .group         0x0000000000000000        0x8 nrf51_sdk/nrf51822/Source/ble/ble_services/ble_dis.o
 .group         0x0000000000000000        0x8 nrf51_sdk/nrf51822/Source/ble/ble_services/ble_dis.o
 .group         0x0000000000000000        0x8 nrf51_sdk/nrf51822/Source/ble/ble_services/ble_dis.o
 .group         0x0000000000000000        0x8 nrf51_sdk/nrf51822/Source/ble/ble_services/ble_dis.o
 .group         0x0000000000000000        0x8 nrf51_sdk/nrf51822/Source/ble/ble_services/ble_dis.o
 .group         0x0000000000000000        0x8 nrf51_sdk/nrf51822/Source/ble/ble_services/ble_dis.o
 .group         0x0000000000000000        0x8 nrf51_sdk/nrf51822/Source/ble/ble_services/ble_dis.o
 .group         0x0000000000000000        0x8 nrf51_sdk/nrf51822/Source/ble/ble_services/ble_dis.o
 .group         0x0000000000000000        0x8 nrf51_sdk/nrf51822/Source/ble/ble_services/ble_dis.o
 .group         0x0000000000000000        0x8 nrf51_sdk/nrf51822/Source/ble/ble_services/ble_dis.o
 .group         0x0000000000000000        0x8 nrf51_sdk/nrf51822/Source/ble/ble_services/ble_dis.o
 .group         0x0000000000000000        0x8 nrf51_sdk/nrf51822/Source/ble/ble_services/ble_dis.o
 .group         0x0000000000000000        0x8 nrf51_sdk/nrf51822/Source/ble/ble_services/ble_dis.o
 .group         0x0000000000000000        0x8 nrf51_sdk/nrf51822/Source/ble/ble_services/ble_dis.o
 .group         0x0000000000000000        0x8 nrf51_sdk/nrf51822/Source/ble/ble_services/ble_dis.o
 .group         0x0000000000000000        0x8 nrf51_sdk/nrf51822/Source/ble/ble_services/ble_dis.o
 .group         0x0000000000000000        0x8 nrf51_sdk/nrf51822/Source/ble/ble_services/ble_dis.o
 .group         0x0000000000000000        0x8 nrf51_sdk/nrf51822/Source/ble/ble_services/ble_dis.o
 .group         0x0000000000000000        0x8 nrf51_sdk/nrf51822/Source/ble/ble_services/ble_dis.o
 .group         0x0000000000000000        0x8 nrf51_sdk/nrf51822/Source/ble/ble_services/ble_dis.o
 .group         0x0000000000000000        0x8 nrf51_sdk/nrf51822/Source/ble/ble_services/ble_dis.o
 .group         0x0000000000000000        0x8 nrf51_sdk/nrf51822/Source/ble/ble_services/ble_dis.o
 .group         0x0000000000000000        0x8 nrf51_sdk/nrf51822/Source/ble/ble_services/ble_dis.o
 .group         0x0000000000000000        0x8 nrf51_sdk/nrf51822/Source/ble/ble_services/ble_dis.o
 .group         0x0000000000000000        0x8 nrf51_sdk/nrf51822/Source/ble/ble_services/ble_dis.o
 .group         0x0000000000000000        0x8 nrf51_sdk/nrf51822/Source/ble/ble_services/ble_dis.o
 .group         0x0000000000000000        0x8 nrf51_sdk/nrf51822/Source/ble/ble_services/ble_dis.o
 .group         0x0000000000000000        0x8 nrf51_sdk/nrf51822/Source/ble/ble_services/ble_dis.o
 .group         0x0000000000000000        0x8 nrf51_sdk/nrf51822/Source/ble/ble_services/ble_dis.o
 .group         0x0000000000000000        0x8 nrf51_sdk/nrf51822/Source/ble/ble_services/ble_dis.o
 .debug_macro   0x0000000000000000      0x850 nrf51_sdk/nrf51822/Source/ble/ble_services/ble_dis.o
 .debug_macro   0x0000000000000000       0x22 nrf51_sdk/nrf51822/Source/ble/ble_services/ble_dis.o
 .debug_macro   0x0000000000000000       0x44 nrf51_sdk/nrf51822/Source/ble/ble_services/ble_dis.o
 .debug_macro   0x0000000000000000       0xe3 nrf51_sdk/nrf51822/Source/ble/ble_services/ble_dis.o
 .debug_macro   0x0000000000000000       0x22 nrf51_sdk/nrf51822/Source/ble/ble_services/ble_dis.o
 .debug_macro   0x0000000000000000      0x1df nrf51_sdk/nrf51822/Source/ble/ble_services/ble_dis.o
 .debug_macro   0x0000000000000000       0x22 nrf51_sdk/nrf51822/Source/ble/ble_services/ble_dis.o
 .debug_macro   0x0000000000000000      0x1e1 nrf51_sdk/nrf51822/Source/ble/ble_services/ble_dis.o
 .debug_macro   0x0000000000000000       0x1c nrf51_sdk/nrf51822/Source/ble/ble_services/ble_dis.o
 .debug_macro   0x0000000000000000       0x22 nrf51_sdk/nrf51822/Source/ble/ble_services/ble_dis.o
 .debug_macro   0x0000000000000000       0xd6 nrf51_sdk/nrf51822/Source/ble/ble_services/ble_dis.o
 .debug_macro   0x0000000000000000       0x10 nrf51_sdk/nrf51822/Source/ble/ble_services/ble_dis.o
 .debug_macro   0x0000000000000000      0x308 nrf51_sdk/nrf51822/Source/ble/ble_services/ble_dis.o
 .debug_macro   0x0000000000000000      0x1d5 nrf51_sdk/nrf51822/Source/ble/ble_services/ble_dis.o
 .debug_macro   0x0000000000000000      0x245 nrf51_sdk/nrf51822/Source/ble/ble_services/ble_dis.o
 .debug_macro   0x0000000000000000       0x58 nrf51_sdk/nrf51822/Source/ble/ble_services/ble_dis.o
 .debug_macro   0x0000000000000000       0x35 nrf51_sdk/nrf51822/Source/ble/ble_services/ble_dis.o
 .debug_macro   0x0000000000000000       0x9c nrf51_sdk/nrf51822/Source/ble/ble_services/ble_dis.o
 .debug_macro   0x0000000000000000       0x16 nrf51_sdk/nrf51822/Source/ble/ble_services/ble_dis.o
 .debug_macro   0x0000000000000000      0x10e nrf51_sdk/nrf51822/Source/ble/ble_services/ble_dis.o
 .debug_macro   0x0000000000000000       0x86 nrf51_sdk/nrf51822/Source/ble/ble_services/ble_dis.o
 .debug_macro   0x0000000000000000       0x52 nrf51_sdk/nrf51822/Source/ble/ble_services/ble_dis.o
 .debug_macro   0x0000000000000000       0x16 nrf51_sdk/nrf51822/Source/ble/ble_services/ble_dis.o
 .debug_macro   0x0000000000000000       0x43 nrf51_sdk/nrf51822/Source/ble/ble_services/ble_dis.o
 .debug_macro   0x0000000000000000      0x180 nrf51_sdk/nrf51822/Source/ble/ble_services/ble_dis.o
 .debug_macro   0x0000000000000000      0x27a nrf51_sdk/nrf51822/Source/ble/ble_services/ble_dis.o
 .debug_macro   0x0000000000000000       0x16 nrf51_sdk/nrf51822/Source/ble/ble_services/ble_dis.o
 .debug_macro   0x0000000000000000       0x29 nrf51_sdk/nrf51822/Source/ble/ble_services/ble_dis.o
 .debug_macro   0x0000000000000000       0x16 nrf51_sdk/nrf51822/Source/ble/ble_services/ble_dis.o
 .debug_macro   0x0000000000000000       0x35 nrf51_sdk/nrf51822/Source/ble/ble_services/ble_dis.o
 .debug_macro   0x0000000000000000       0x8e nrf51_sdk/nrf51822/Source/ble/ble_services/ble_dis.o
 .debug_macro   0x0000000000000000       0x16 nrf51_sdk/nrf51822/Source/ble/ble_services/ble_dis.o
 .debug_macro   0x0000000000000000       0x34 nrf51_sdk/nrf51822/Source/ble/ble_services/ble_dis.o
 .debug_macro   0x0000000000000000       0x22 nrf51_sdk/nrf51822/Source/ble/ble_services/ble_dis.o
 .debug_macro   0x0000000000000000       0xf4 nrf51_sdk/nrf51822/Source/ble/ble_services/ble_dis.o
 .group         0x0000000000000000        0x8 nrf51_sdk/nrf51822/Source/sd_common/softdevice_handler.o
 .group         0x0000000000000000        0x8 nrf51_sdk/nrf51822/Source/sd_common/softdevice_handler.o
 .group         0x0000000000000000        0x8 nrf51_sdk/nrf51822/Source/sd_common/softdevice_handler.o
 .group         0x0000000000000000        0x8 nrf51_sdk/nrf51822/Source/sd_common/softdevice_handler.o
 .group         0x0000000000000000        0x8 nrf51_sdk/nrf51822/Source/sd_common/softdevice_handler.o
 .group         0x0000000000000000        0x8 nrf51_sdk/nrf51822/Source/sd_common/softdevice_handler.o
 .group         0x0000000000000000        0x8 nrf51_sdk/nrf51822/Source/sd_common/softdevice_handler.o
 .group         0x0000000000000000        0x8 nrf51_sdk/nrf51822/Source/sd_common/softdevice_handler.o
 .group         0x0000000000000000        0x8 nrf51_sdk/nrf51822/Source/sd_common/softdevice_handler.o
 .group         0x0000000000000000        0x8 nrf51_sdk/nrf51822/Source/sd_common/softdevice_handler.o
 .group         0x0000000000000000        0x8 nrf51_sdk/nrf51822/Source/sd_common/softdevice_handler.o
 .group         0x0000000000000000        0x8 nrf51_sdk/nrf51822/Source/sd_common/softdevice_handler.o
 .group         0x0000000000000000        0x8 nrf51_sdk/nrf51822/Source/sd_common/softdevice_handler.o
 .group         0x0000000000000000        0x8 nrf51_sdk/nrf51822/Source/sd_common/softdevice_handler.o
 .group         0x0000000000000000        0x8 nrf51_sdk/nrf51822/Source/sd_common/softdevice_handler.o
 .group         0x0000000000000000        0x8 nrf51_sdk/nrf51822/Source/sd_common/softdevice_handler.o
 .group         0x0000000000000000        0x8 nrf51_sdk/nrf51822/Source/sd_common/softdevice_handler.o
 .group         0x0000000000000000        0x8 nrf51_sdk/nrf51822/Source/sd_common/softdevice_handler.o
 .group         0x0000000000000000        0x8 nrf51_sdk/nrf51822/Source/sd_common/softdevice_handler.o
 .group         0x0000000000000000        0x8 nrf51_sdk/nrf51822/Source/sd_common/softdevice_handler.o
 .group         0x0000000000000000        0x8 nrf51_sdk/nrf51822/Source/sd_common/softdevice_handler.o
 .group         0x0000000000000000        0x8 nrf51_sdk/nrf51822/Source/sd_common/softdevice_handler.o
 .group         0x0000000000000000        0x8 nrf51_sdk/nrf51822/Source/sd_common/softdevice_handler.o
 .group         0x0000000000000000        0x8 nrf51_sdk/nrf51822/Source/sd_common/softdevice_handler.o
 .group         0x0000000000000000        0x8 nrf51_sdk/nrf51822/Source/sd_common/softdevice_handler.o
 .group         0x0000000000000000        0x8 nrf51_sdk/nrf51822/Source/sd_common/softdevice_handler.o
 .group         0x0000000000000000        0x8 nrf51_sdk/nrf51822/Source/sd_common/softdevice_handler.o
 .group         0x0000000000000000        0x8 nrf51_sdk/nrf51822/Source/sd_common/softdevice_handler.o
 .group         0x0000000000000000        0x8 nrf51_sdk/nrf51822/Source/sd_common/softdevice_handler.o
 .group         0x0000000000000000        0x8 nrf51_sdk/nrf51822/Source/sd_common/softdevice_handler.o
 .group         0x0000000000000000        0x8 nrf51_sdk/nrf51822/Source/sd_common/softdevice_handler.o
 .group         0x0000000000000000        0x8 nrf51_sdk/nrf51822/Source/sd_common/softdevice_handler.o
 .group         0x0000000000000000        0x8 nrf51_sdk/nrf51822/Source/sd_common/softdevice_handler.o
 .group         0x0000000000000000        0x8 nrf51_sdk/nrf51822/Source/sd_common/softdevice_handler.o
 .group         0x0000000000000000        0x8 nrf51_sdk/nrf51822/Source/sd_common/softdevice_handler.o
 .group         0x0000000000000000        0x8 nrf51_sdk/nrf51822/Source/sd_common/softdevice_handler.o
 .group         0x0000000000000000        0x8 nrf51_sdk/nrf51822/Source/sd_common/softdevice_handler.o
 .group         0x0000000000000000        0x8 nrf51_sdk/nrf51822/Source/sd_common/softdevice_handler.o
 .group         0x0000000000000000        0x8 nrf51_sdk/nrf51822/Source/sd_common/softdevice_handler.o
 .group         0x0000000000000000        0x8 nrf51_sdk/nrf51822/Source/sd_common/softdevice_handler.o
 .group         0x0000000000000000        0x8 nrf51_sdk/nrf51822/Source/sd_common/softdevice_handler.o
 .group         0x0000000000000000        0x8 nrf51_sdk/nrf51822/Source/sd_common/softdevice_handler.o
 .group         0x0000000000000000        0x8 nrf51_sdk/nrf51822/Source/sd_common/softdevice_handler.o
 .group         0x0000000000000000        0x8 nrf51_sdk/nrf51822/Source/sd_common/softdevice_handler.o
 .group         0x0000000000000000        0x8 nrf51_sdk/nrf51822/Source/sd_common/softdevice_handler.o
 .group         0x0000000000000000        0x8 nrf51_sdk/nrf51822/Source/sd_common/softdevice_handler.o
 .group         0x0000000000000000        0x8 nrf51_sdk/nrf51822/Source/sd_common/softdevice_handler.o
 .group         0x0000000000000000        0x8 nrf51_sdk/nrf51822/Source/sd_common/softdevice_handler.o
 .group         0x0000000000000000        0x8 nrf51_sdk/nrf51822/Source/sd_common/softdevice_handler.o
 .debug_macro   0x0000000000000000      0x850 nrf51_sdk/nrf51822/Source/sd_common/softdevice_handler.o
 .debug_macro   0x0000000000000000       0x58 nrf51_sdk/nrf51822/Source/sd_common/softdevice_handler.o
 .debug_macro   0x0000000000000000       0x22 nrf51_sdk/nrf51822/Source/sd_common/softdevice_handler.o
 .debug_macro   0x0000000000000000       0x35 nrf51_sdk/nrf51822/Source/sd_common/softdevice_handler.o
 .debug_macro   0x0000000000000000       0x9c nrf51_sdk/nrf51822/Source/sd_common/softdevice_handler.o
 .debug_macro   0x0000000000000000       0x16 nrf51_sdk/nrf51822/Source/sd_common/softdevice_handler.o
 .debug_macro   0x0000000000000000      0x10e nrf51_sdk/nrf51822/Source/sd_common/softdevice_handler.o
 .debug_macro   0x0000000000000000       0x86 nrf51_sdk/nrf51822/Source/sd_common/softdevice_handler.o
 .debug_macro   0x0000000000000000       0x4a nrf51_sdk/nrf51822/Source/sd_common/softdevice_handler.o
 .debug_macro   0x0000000000000000       0x52 nrf51_sdk/nrf51822/Source/sd_common/softdevice_handler.o
 .debug_macro   0x0000000000000000       0x16 nrf51_sdk/nrf51822/Source/sd_common/softdevice_handler.o
 .debug_macro   0x0000000000000000       0x43 nrf51_sdk/nrf51822/Source/sd_common/softdevice_handler.o
 .debug_macro   0x0000000000000000      0x180 nrf51_sdk/nrf51822/Source/sd_common/softdevice_handler.o
 .debug_macro   0x0000000000000000      0x27a nrf51_sdk/nrf51822/Source/sd_common/softdevice_handler.o
 .debug_macro   0x0000000000000000       0x16 nrf51_sdk/nrf51822/Source/sd_common/softdevice_handler.o
 .debug_macro   0x0000000000000000       0x29 nrf51_sdk/nrf51822/Source/sd_common/softdevice_handler.o
 .debug_macro   0x0000000000000000       0xf4 nrf51_sdk/nrf51822/Source/sd_common/softdevice_handler.o
 .debug_macro   0x0000000000000000       0x10 nrf51_sdk/nrf51822/Source/sd_common/softdevice_handler.o
 .debug_macro   0x0000000000000000       0x22 nrf51_sdk/nrf51822/Source/sd_common/softdevice_handler.o
 .debug_macro   0x0000000000000000       0x3a nrf51_sdk/nrf51822/Source/sd_common/softdevice_handler.o
 .debug_macro   0x0000000000000000       0xe3 nrf51_sdk/nrf51822/Source/sd_common/softdevice_handler.o
 .debug_macro   0x0000000000000000       0x22 nrf51_sdk/nrf51822/Source/sd_common/softdevice_handler.o
 .debug_macro   0x0000000000000000      0x1df nrf51_sdk/nrf51822/Source/sd_common/softdevice_handler.o
 .debug_macro   0x0000000000000000       0x1f nrf51_sdk/nrf51822/Source/sd_common/softdevice_handler.o
 .debug_macro   0x0000000000000000      0x242 nrf51_sdk/nrf51822/Source/sd_common/softdevice_handler.o
 .debug_macro   0x0000000000000000      0x1e0 nrf51_sdk/nrf51822/Source/sd_common/softdevice_handler.o
 .debug_macro   0x0000000000000000       0x22 nrf51_sdk/nrf51822/Source/sd_common/softdevice_handler.o
 .debug_macro   0x0000000000000000     0x74a3 nrf51_sdk/nrf51822/Source/sd_common/softdevice_handler.o
 .debug_macro   0x0000000000000000       0x8e nrf51_sdk/nrf51822/Source/sd_common/softdevice_handler.o
 .debug_macro   0x0000000000000000       0x40 nrf51_sdk/nrf51822/Source/sd_common/softdevice_handler.o
 .debug_macro   0x0000000000000000       0x64 nrf51_sdk/nrf51822/Source/sd_common/softdevice_handler.o
 .debug_macro   0x0000000000000000       0x1c nrf51_sdk/nrf51822/Source/sd_common/softdevice_handler.o
 .debug_macro   0x0000000000000000       0x16 nrf51_sdk/nrf51822/Source/sd_common/softdevice_handler.o
 .debug_macro   0x0000000000000000       0x10 nrf51_sdk/nrf51822/Source/sd_common/softdevice_handler.o
 .debug_macro   0x0000000000000000       0x22 nrf51_sdk/nrf51822/Source/sd_common/softdevice_handler.o
 .debug_macro   0x0000000000000000       0xd6 nrf51_sdk/nrf51822/Source/sd_common/softdevice_handler.o
 .debug_macro   0x0000000000000000      0x1e1 nrf51_sdk/nrf51822/Source/sd_common/softdevice_handler.o
 .debug_macro   0x0000000000000000       0x22 nrf51_sdk/nrf51822/Source/sd_common/softdevice_handler.o
 .debug_macro   0x0000000000000000      0x1d5 nrf51_sdk/nrf51822/Source/sd_common/softdevice_handler.o
 .debug_macro   0x0000000000000000       0x16 nrf51_sdk/nrf51822/Source/sd_common/softdevice_handler.o
 .debug_macro   0x0000000000000000       0xb8 nrf51_sdk/nrf51822/Source/sd_common/softdevice_handler.o
 .debug_macro   0x0000000000000000       0x1c nrf51_sdk/nrf51822/Source/sd_common/softdevice_handler.o
 .debug_macro   0x0000000000000000       0x10 nrf51_sdk/nrf51822/Source/sd_common/softdevice_handler.o
 .debug_macro   0x0000000000000000       0x16 nrf51_sdk/nrf51822/Source/sd_common/softdevice_handler.o
 .group         0x0000000000000000        0x8 nrf51_sdk/nrf51822/Source/app_common/app_timer.o
 .group         0x0000000000000000        0x8 nrf51_sdk/nrf51822/Source/app_common/app_timer.o
 .group         0x0000000000000000        0x8 nrf51_sdk/nrf51822/Source/app_common/app_timer.o
 .group         0x0000000000000000        0x8 nrf51_sdk/nrf51822/Source/app_common/app_timer.o
 .group         0x0000000000000000        0x8 nrf51_sdk/nrf51822/Source/app_common/app_timer.o
 .group         0x0000000000000000        0x8 nrf51_sdk/nrf51822/Source/app_common/app_timer.o
 .group         0x0000000000000000        0x8 nrf51_sdk/nrf51822/Source/app_common/app_timer.o
 .group         0x0000000000000000        0x8 nrf51_sdk/nrf51822/Source/app_common/app_timer.o
 .group         0x0000000000000000        0x8 nrf51_sdk/nrf51822/Source/app_common/app_timer.o
 .group         0x0000000000000000        0x8 nrf51_sdk/nrf51822/Source/app_common/app_timer.o
 .group         0x0000000000000000        0x8 nrf51_sdk/nrf51822/Source/app_common/app_timer.o
 .group         0x0000000000000000        0x8 nrf51_sdk/nrf51822/Source/app_common/app_timer.o
 .group         0x0000000000000000        0x8 nrf51_sdk/nrf51822/Source/app_common/app_timer.o
 .group         0x0000000000000000        0x8 nrf51_sdk/nrf51822/Source/app_common/app_timer.o
 .group         0x0000000000000000        0x8 nrf51_sdk/nrf51822/Source/app_common/app_timer.o
 .group         0x0000000000000000        0x8 nrf51_sdk/nrf51822/Source/app_common/app_timer.o
 .group         0x0000000000000000        0x8 nrf51_sdk/nrf51822/Source/app_common/app_timer.o
 .group         0x0000000000000000        0x8 nrf51_sdk/nrf51822/Source/app_common/app_timer.o
 .group         0x0000000000000000        0x8 nrf51_sdk/nrf51822/Source/app_common/app_timer.o
 .group         0x0000000000000000        0x8 nrf51_sdk/nrf51822/Source/app_common/app_timer.o
 .group         0x0000000000000000        0x8 nrf51_sdk/nrf51822/Source/app_common/app_timer.o
 .group         0x0000000000000000        0x8 nrf51_sdk/nrf51822/Source/app_common/app_timer.o
 .group         0x0000000000000000        0x8 nrf51_sdk/nrf51822/Source/app_common/app_timer.o
 .group         0x0000000000000000        0x8 nrf51_sdk/nrf51822/Source/app_common/app_timer.o
 .group         0x0000000000000000        0x8 nrf51_sdk/nrf51822/Source/app_common/app_timer.o
 .group         0x0000000000000000        0x8 nrf51_sdk/nrf51822/Source/app_common/app_timer.o
 .group         0x0000000000000000        0x8 nrf51_sdk/nrf51822/Source/app_common/app_timer.o
 .group         0x0000000000000000        0x8 nrf51_sdk/nrf51822/Source/app_common/app_timer.o
 .group         0x0000000000000000        0x8 nrf51_sdk/nrf51822/Source/app_common/app_timer.o
 .group         0x0000000000000000        0x8 nrf51_sdk/nrf51822/Source/app_common/app_timer.o
 .group         0x0000000000000000        0x8 nrf51_sdk/nrf51822/Source/app_common/app_timer.o
 .group         0x0000000000000000        0x8 nrf51_sdk/nrf51822/Source/app_common/app_timer.o
 .group         0x0000000000000000        0x8 nrf51_sdk/nrf51822/Source/app_common/app_timer.o
 .group         0x0000000000000000        0x8 nrf51_sdk/nrf51822/Source/app_common/app_timer.o
 .group         0x0000000000000000        0x8 nrf51_sdk/nrf51822/Source/app_common/app_timer.o
 .group         0x0000000000000000        0x8 nrf51_sdk/nrf51822/Source/app_common/app_timer.o
 .group         0x0000000000000000        0x8 nrf51_sdk/nrf51822/Source/app_common/app_timer.o
 .group         0x0000000000000000        0x8 nrf51_sdk/nrf51822/Source/app_common/app_timer.o
 .group         0x0000000000000000        0x8 nrf51_sdk/nrf51822/Source/app_common/app_timer.o
 .group         0x0000000000000000        0x8 nrf51_sdk/nrf51822/Source/app_common/app_timer.o
 .group         0x0000000000000000        0x8 nrf51_sdk/nrf51822/Source/app_common/app_timer.o
 .group         0x0000000000000000        0x8 nrf51_sdk/nrf51822/Source/app_common/app_timer.o
 .group         0x0000000000000000        0x8 nrf51_sdk/nrf51822/Source/app_common/app_timer.o
 .group         0x0000000000000000        0x8 nrf51_sdk/nrf51822/Source/app_common/app_timer.o
 .group         0x0000000000000000        0x8 nrf51_sdk/nrf51822/Source/app_common/app_timer.o
 .debug_macro   0x0000000000000000      0x850 nrf51_sdk/nrf51822/Source/app_common/app_timer.o
 .debug_macro   0x0000000000000000       0x22 nrf51_sdk/nrf51822/Source/app_common/app_timer.o
 .debug_macro   0x0000000000000000       0x44 nrf51_sdk/nrf51822/Source/app_common/app_timer.o
 .debug_macro   0x0000000000000000       0xe3 nrf51_sdk/nrf51822/Source/app_common/app_timer.o
 .debug_macro   0x0000000000000000       0x22 nrf51_sdk/nrf51822/Source/app_common/app_timer.o
 .debug_macro   0x0000000000000000      0x1df nrf51_sdk/nrf51822/Source/app_common/app_timer.o
 .debug_macro   0x0000000000000000       0x22 nrf51_sdk/nrf51822/Source/app_common/app_timer.o
 .debug_macro   0x0000000000000000       0x58 nrf51_sdk/nrf51822/Source/app_common/app_timer.o
 .debug_macro   0x0000000000000000       0x35 nrf51_sdk/nrf51822/Source/app_common/app_timer.o
 .debug_macro   0x0000000000000000       0x9c nrf51_sdk/nrf51822/Source/app_common/app_timer.o
 .debug_macro   0x0000000000000000      0x27a nrf51_sdk/nrf51822/Source/app_common/app_timer.o
 .debug_macro   0x0000000000000000       0x10 nrf51_sdk/nrf51822/Source/app_common/app_timer.o
 .debug_macro   0x0000000000000000       0x52 nrf51_sdk/nrf51822/Source/app_common/app_timer.o
 .debug_macro   0x0000000000000000       0x16 nrf51_sdk/nrf51822/Source/app_common/app_timer.o
 .debug_macro   0x0000000000000000       0x43 nrf51_sdk/nrf51822/Source/app_common/app_timer.o
 .debug_macro   0x0000000000000000      0x180 nrf51_sdk/nrf51822/Source/app_common/app_timer.o
 .debug_macro   0x0000000000000000       0x10 nrf51_sdk/nrf51822/Source/app_common/app_timer.o
 .debug_macro   0x0000000000000000       0x22 nrf51_sdk/nrf51822/Source/app_common/app_timer.o
 .debug_macro   0x0000000000000000       0xbe nrf51_sdk/nrf51822/Source/app_common/app_timer.o
 .debug_macro   0x0000000000000000       0x16 nrf51_sdk/nrf51822/Source/app_common/app_timer.o
 .debug_macro   0x0000000000000000      0x197 nrf51_sdk/nrf51822/Source/app_common/app_timer.o
 .debug_macro   0x0000000000000000       0x8e nrf51_sdk/nrf51822/Source/app_common/app_timer.o
 .debug_macro   0x0000000000000000       0x16 nrf51_sdk/nrf51822/Source/app_common/app_timer.o
 .debug_macro   0x0000000000000000       0x1c nrf51_sdk/nrf51822/Source/app_common/app_timer.o
 .debug_macro   0x0000000000000000       0x22 nrf51_sdk/nrf51822/Source/app_common/app_timer.o
 .debug_macro   0x0000000000000000       0x1c nrf51_sdk/nrf51822/Source/app_common/app_timer.o
 .debug_macro   0x0000000000000000       0x41 nrf51_sdk/nrf51822/Source/app_common/app_timer.o
 .debug_macro   0x0000000000000000       0x16 nrf51_sdk/nrf51822/Source/app_common/app_timer.o
 .debug_macro   0x0000000000000000       0x35 nrf51_sdk/nrf51822/Source/app_common/app_timer.o
 .debug_macro   0x0000000000000000       0x16 nrf51_sdk/nrf51822/Source/app_common/app_timer.o
 .debug_macro   0x0000000000000000       0x29 nrf51_sdk/nrf51822/Source/app_common/app_timer.o
 .debug_macro   0x0000000000000000       0x22 nrf51_sdk/nrf51822/Source/app_common/app_timer.o
 .debug_macro   0x0000000000000000       0x3a nrf51_sdk/nrf51822/Source/app_common/app_timer.o
 .debug_macro   0x0000000000000000       0x1f nrf51_sdk/nrf51822/Source/app_common/app_timer.o
 .debug_macro   0x0000000000000000      0x242 nrf51_sdk/nrf51822/Source/app_common/app_timer.o
 .debug_macro   0x0000000000000000      0x1e0 nrf51_sdk/nrf51822/Source/app_common/app_timer.o
 .debug_macro   0x0000000000000000     0x74a3 nrf51_sdk/nrf51822/Source/app_common/app_timer.o
 .debug_macro   0x0000000000000000       0x10 nrf51_sdk/nrf51822/Source/app_common/app_timer.o
 .debug_macro   0x0000000000000000       0x40 nrf51_sdk/nrf51822/Source/app_common/app_timer.o
 .debug_macro   0x0000000000000000       0x64 nrf51_sdk/nrf51822/Source/app_common/app_timer.o
 .group         0x0000000000000000        0x8 nrf51_sdk/nrf51822/Source/app_common/pstorage.o
 .group         0x0000000000000000        0x8 nrf51_sdk/nrf51822/Source/app_common/pstorage.o
 .group         0x0000000000000000        0x8 nrf51_sdk/nrf51822/Source/app_common/pstorage.o
 .group         0x0000000000000000        0x8 nrf51_sdk/nrf51822/Source/app_common/pstorage.o
 .group         0x0000000000000000        0x8 nrf51_sdk/nrf51822/Source/app_common/pstorage.o
 .group         0x0000000000000000        0x8 nrf51_sdk/nrf51822/Source/app_common/pstorage.o
 .group         0x0000000000000000        0x8 nrf51_sdk/nrf51822/Source/app_common/pstorage.o
 .group         0x0000000000000000        0x8 nrf51_sdk/nrf51822/Source/app_common/pstorage.o
 .group         0x0000000000000000        0x8 nrf51_sdk/nrf51822/Source/app_common/pstorage.o
 .group         0x0000000000000000        0x8 nrf51_sdk/nrf51822/Source/app_common/pstorage.o
 .group         0x0000000000000000        0x8 nrf51_sdk/nrf51822/Source/app_common/pstorage.o
 .group         0x0000000000000000        0x8 nrf51_sdk/nrf51822/Source/app_common/pstorage.o
 .group         0x0000000000000000        0x8 nrf51_sdk/nrf51822/Source/app_common/pstorage.o
 .group         0x0000000000000000        0x8 nrf51_sdk/nrf51822/Source/app_common/pstorage.o
 .group         0x0000000000000000        0x8 nrf51_sdk/nrf51822/Source/app_common/pstorage.o
 .group         0x0000000000000000        0x8 nrf51_sdk/nrf51822/Source/app_common/pstorage.o
 .group         0x0000000000000000        0x8 nrf51_sdk/nrf51822/Source/app_common/pstorage.o
 .group         0x0000000000000000        0x8 nrf51_sdk/nrf51822/Source/app_common/pstorage.o
 .group         0x0000000000000000        0x8 nrf51_sdk/nrf51822/Source/app_common/pstorage.o
 .group         0x0000000000000000        0x8 nrf51_sdk/nrf51822/Source/app_common/pstorage.o
 .group         0x0000000000000000        0x8 nrf51_sdk/nrf51822/Source/app_common/pstorage.o
 .group         0x0000000000000000        0x8 nrf51_sdk/nrf51822/Source/app_common/pstorage.o
 .group         0x0000000000000000        0x8 nrf51_sdk/nrf51822/Source/app_common/pstorage.o
 .group         0x0000000000000000        0x8 nrf51_sdk/nrf51822/Source/app_common/pstorage.o
 .group         0x0000000000000000        0x8 nrf51_sdk/nrf51822/Source/app_common/pstorage.o
 .group         0x0000000000000000        0x8 nrf51_sdk/nrf51822/Source/app_common/pstorage.o
 .group         0x0000000000000000        0x8 nrf51_sdk/nrf51822/Source/app_common/pstorage.o
 .group         0x0000000000000000        0x8 nrf51_sdk/nrf51822/Source/app_common/pstorage.o
 .group         0x0000000000000000        0x8 nrf51_sdk/nrf51822/Source/app_common/pstorage.o
 .group         0x0000000000000000        0x8 nrf51_sdk/nrf51822/Source/app_common/pstorage.o
 .group         0x0000000000000000        0x8 nrf51_sdk/nrf51822/Source/app_common/pstorage.o
 .group         0x0000000000000000        0x8 nrf51_sdk/nrf51822/Source/app_common/pstorage.o
 .group         0x0000000000000000        0x8 nrf51_sdk/nrf51822/Source/app_common/pstorage.o
 .group         0x0000000000000000        0x8 nrf51_sdk/nrf51822/Source/app_common/pstorage.o
 .group         0x0000000000000000        0x8 nrf51_sdk/nrf51822/Source/app_common/pstorage.o
 .group         0x0000000000000000        0x8 nrf51_sdk/nrf51822/Source/app_common/pstorage.o
 .group         0x0000000000000000        0x8 nrf51_sdk/nrf51822/Source/app_common/pstorage.o
 .group         0x0000000000000000        0x8 nrf51_sdk/nrf51822/Source/app_common/pstorage.o
 .group         0x0000000000000000        0x8 nrf51_sdk/nrf51822/Source/app_common/pstorage.o
 .debug_macro   0x0000000000000000      0x850 nrf51_sdk/nrf51822/Source/app_common/pstorage.o
 .debug_macro   0x0000000000000000       0x22 nrf51_sdk/nrf51822/Source/app_common/pstorage.o
 .debug_macro   0x0000000000000000       0x44 nrf51_sdk/nrf51822/Source/app_common/pstorage.o
 .debug_macro   0x0000000000000000       0xe3 nrf51_sdk/nrf51822/Source/app_common/pstorage.o
 .debug_macro   0x0000000000000000       0x22 nrf51_sdk/nrf51822/Source/app_common/pstorage.o
 .debug_macro   0x0000000000000000      0x1df nrf51_sdk/nrf51822/Source/app_common/pstorage.o
 .debug_macro   0x0000000000000000       0x22 nrf51_sdk/nrf51822/Source/app_common/pstorage.o
 .debug_macro   0x0000000000000000       0x58 nrf51_sdk/nrf51822/Source/app_common/pstorage.o
 .debug_macro   0x0000000000000000       0x35 nrf51_sdk/nrf51822/Source/app_common/pstorage.o
 .debug_macro   0x0000000000000000       0x9c nrf51_sdk/nrf51822/Source/app_common/pstorage.o
 .debug_macro   0x0000000000000000       0x16 nrf51_sdk/nrf51822/Source/app_common/pstorage.o
 .debug_macro   0x0000000000000000      0x10e nrf51_sdk/nrf51822/Source/app_common/pstorage.o
 .debug_macro   0x0000000000000000       0x86 nrf51_sdk/nrf51822/Source/app_common/pstorage.o
 .debug_macro   0x0000000000000000       0x52 nrf51_sdk/nrf51822/Source/app_common/pstorage.o
 .debug_macro   0x0000000000000000       0x16 nrf51_sdk/nrf51822/Source/app_common/pstorage.o
 .debug_macro   0x0000000000000000       0x43 nrf51_sdk/nrf51822/Source/app_common/pstorage.o
 .debug_macro   0x0000000000000000      0x180 nrf51_sdk/nrf51822/Source/app_common/pstorage.o
 .debug_macro   0x0000000000000000      0x27a nrf51_sdk/nrf51822/Source/app_common/pstorage.o
 .debug_macro   0x0000000000000000       0x16 nrf51_sdk/nrf51822/Source/app_common/pstorage.o
 .debug_macro   0x0000000000000000       0x29 nrf51_sdk/nrf51822/Source/app_common/pstorage.o
 .debug_macro   0x0000000000000000       0x16 nrf51_sdk/nrf51822/Source/app_common/pstorage.o
 .debug_macro   0x0000000000000000       0x35 nrf51_sdk/nrf51822/Source/app_common/pstorage.o
 .debug_macro   0x0000000000000000       0xf4 nrf51_sdk/nrf51822/Source/app_common/pstorage.o
 .debug_macro   0x0000000000000000       0x8e nrf51_sdk/nrf51822/Source/app_common/pstorage.o
 .debug_macro   0x0000000000000000       0x10 nrf51_sdk/nrf51822/Source/app_common/pstorage.o
 .debug_macro   0x0000000000000000       0x22 nrf51_sdk/nrf51822/Source/app_common/pstorage.o
 .debug_macro   0x0000000000000000       0x3a nrf51_sdk/nrf51822/Source/app_common/pstorage.o
 .debug_macro   0x0000000000000000       0x1f nrf51_sdk/nrf51822/Source/app_common/pstorage.o
 .debug_macro   0x0000000000000000      0x242 nrf51_sdk/nrf51822/Source/app_common/pstorage.o
 .debug_macro   0x0000000000000000      0x1e0 nrf51_sdk/nrf51822/Source/app_common/pstorage.o
 .debug_macro   0x0000000000000000     0x74a3 nrf51_sdk/nrf51822/Source/app_common/pstorage.o
 .debug_macro   0x0000000000000000      0x963 nrf51_sdk/nrf51822/Source/app_common/pstorage.o
 .debug_macro   0x0000000000000000       0x10 nrf51_sdk/nrf51822/Source/app_common/pstorage.o
 .debug_macro   0x0000000000000000       0x22 nrf51_sdk/nrf51822/Source/app_common/pstorage.o
 .debug_macro   0x0000000000000000       0x10 nrf51_sdk/nrf51822/Source/app_common/pstorage.o
 .debug_macro   0x0000000000000000       0x40 nrf51_sdk/nrf51822/Source/app_common/pstorage.o
 .debug_macro   0x0000000000000000       0x64 nrf51_sdk/nrf51822/Source/app_common/pstorage.o
 .debug_macro   0x0000000000000000       0x22 nrf51_sdk/nrf51822/Source/app_common/pstorage.o
 .group         0x0000000000000000        0x8 nrf51_sdk/nrf51822/Source/ble/device_manager/device_manager_peripheral.o
 .group         0x0000000000000000        0x8 nrf51_sdk/nrf51822/Source/ble/device_manager/device_manager_peripheral.o
 .group         0x0000000000000000        0x8 nrf51_sdk/nrf51822/Source/ble/device_manager/device_manager_peripheral.o
 .group         0x0000000000000000        0x8 nrf51_sdk/nrf51822/Source/ble/device_manager/device_manager_peripheral.o
 .group         0x0000000000000000        0x8 nrf51_sdk/nrf51822/Source/ble/device_manager/device_manager_peripheral.o
 .group         0x0000000000000000        0x8 nrf51_sdk/nrf51822/Source/ble/device_manager/device_manager_peripheral.o
 .group         0x0000000000000000        0x8 nrf51_sdk/nrf51822/Source/ble/device_manager/device_manager_peripheral.o
 .group         0x0000000000000000        0x8 nrf51_sdk/nrf51822/Source/ble/device_manager/device_manager_peripheral.o
 .group         0x0000000000000000        0x8 nrf51_sdk/nrf51822/Source/ble/device_manager/device_manager_peripheral.o
 .group         0x0000000000000000        0x8 nrf51_sdk/nrf51822/Source/ble/device_manager/device_manager_peripheral.o
 .group         0x0000000000000000        0x8 nrf51_sdk/nrf51822/Source/ble/device_manager/device_manager_peripheral.o
 .group         0x0000000000000000        0x8 nrf51_sdk/nrf51822/Source/ble/device_manager/device_manager_peripheral.o
 .group         0x0000000000000000        0x8 nrf51_sdk/nrf51822/Source/ble/device_manager/device_manager_peripheral.o
 .group         0x0000000000000000        0x8 nrf51_sdk/nrf51822/Source/ble/device_manager/device_manager_peripheral.o
 .group         0x0000000000000000        0x8 nrf51_sdk/nrf51822/Source/ble/device_manager/device_manager_peripheral.o
 .group         0x0000000000000000        0x8 nrf51_sdk/nrf51822/Source/ble/device_manager/device_manager_peripheral.o
 .group         0x0000000000000000        0x8 nrf51_sdk/nrf51822/Source/ble/device_manager/device_manager_peripheral.o
 .group         0x0000000000000000        0x8 nrf51_sdk/nrf51822/Source/ble/device_manager/device_manager_peripheral.o
 .group         0x0000000000000000        0x8 nrf51_sdk/nrf51822/Source/ble/device_manager/device_manager_peripheral.o
 .group         0x0000000000000000        0x8 nrf51_sdk/nrf51822/Source/ble/device_manager/device_manager_peripheral.o
 .group         0x0000000000000000        0x8 nrf51_sdk/nrf51822/Source/ble/device_manager/device_manager_peripheral.o
 .group         0x0000000000000000        0x8 nrf51_sdk/nrf51822/Source/ble/device_manager/device_manager_peripheral.o
 .group         0x0000000000000000        0x8 nrf51_sdk/nrf51822/Source/ble/device_manager/device_manager_peripheral.o
 .group         0x0000000000000000        0x8 nrf51_sdk/nrf51822/Source/ble/device_manager/device_manager_peripheral.o
 .group         0x0000000000000000        0x8 nrf51_sdk/nrf51822/Source/ble/device_manager/device_manager_peripheral.o
 .group         0x0000000000000000        0x8 nrf51_sdk/nrf51822/Source/ble/device_manager/device_manager_peripheral.o
 .group         0x0000000000000000        0x8 nrf51_sdk/nrf51822/Source/ble/device_manager/device_manager_peripheral.o
 .group         0x0000000000000000        0x8 nrf51_sdk/nrf51822/Source/ble/device_manager/device_manager_peripheral.o
 .group         0x0000000000000000        0x8 nrf51_sdk/nrf51822/Source/ble/device_manager/device_manager_peripheral.o
 .group         0x0000000000000000        0x8 nrf51_sdk/nrf51822/Source/ble/device_manager/device_manager_peripheral.o
 .group         0x0000000000000000        0x8 nrf51_sdk/nrf51822/Source/ble/device_manager/device_manager_peripheral.o
 .group         0x0000000000000000        0x8 nrf51_sdk/nrf51822/Source/ble/device_manager/device_manager_peripheral.o
 .group         0x0000000000000000        0x8 nrf51_sdk/nrf51822/Source/ble/device_manager/device_manager_peripheral.o
 .group         0x0000000000000000        0x8 nrf51_sdk/nrf51822/Source/ble/device_manager/device_manager_peripheral.o
 .group         0x0000000000000000        0x8 nrf51_sdk/nrf51822/Source/ble/device_manager/device_manager_peripheral.o
 .group         0x0000000000000000        0x8 nrf51_sdk/nrf51822/Source/ble/device_manager/device_manager_peripheral.o
 .group         0x0000000000000000        0x8 nrf51_sdk/nrf51822/Source/ble/device_manager/device_manager_peripheral.o
 .group         0x0000000000000000        0x8 nrf51_sdk/nrf51822/Source/ble/device_manager/device_manager_peripheral.o
 .group         0x0000000000000000        0x8 nrf51_sdk/nrf51822/Source/ble/device_manager/device_manager_peripheral.o
 .group         0x0000000000000000        0x8 nrf51_sdk/nrf51822/Source/ble/device_manager/device_manager_peripheral.o
 .group         0x0000000000000000        0x8 nrf51_sdk/nrf51822/Source/ble/device_manager/device_manager_peripheral.o
 .group         0x0000000000000000        0x8 nrf51_sdk/nrf51822/Source/ble/device_manager/device_manager_peripheral.o
 .group         0x0000000000000000        0x8 nrf51_sdk/nrf51822/Source/ble/device_manager/device_manager_peripheral.o
 .group         0x0000000000000000        0x8 nrf51_sdk/nrf51822/Source/ble/device_manager/device_manager_peripheral.o
 .group         0x0000000000000000        0x8 nrf51_sdk/nrf51822/Source/ble/device_manager/device_manager_peripheral.o
 .group         0x0000000000000000        0x8 nrf51_sdk/nrf51822/Source/ble/device_manager/device_manager_peripheral.o
 .group         0x0000000000000000        0x8 nrf51_sdk/nrf51822/Source/ble/device_manager/device_manager_peripheral.o
 .group         0x0000000000000000        0x8 nrf51_sdk/nrf51822/Source/ble/device_manager/device_manager_peripheral.o
 .debug_macro   0x0000000000000000      0x850 nrf51_sdk/nrf51822/Source/ble/device_manager/device_manager_peripheral.o
 .debug_macro   0x0000000000000000       0x22 nrf51_sdk/nrf51822/Source/ble/device_manager/device_manager_peripheral.o
 .debug_macro   0x0000000000000000       0x44 nrf51_sdk/nrf51822/Source/ble/device_manager/device_manager_peripheral.o
 .debug_macro   0x0000000000000000       0xe3 nrf51_sdk/nrf51822/Source/ble/device_manager/device_manager_peripheral.o
 .debug_macro   0x0000000000000000       0x22 nrf51_sdk/nrf51822/Source/ble/device_manager/device_manager_peripheral.o
 .debug_macro   0x0000000000000000      0x1df nrf51_sdk/nrf51822/Source/ble/device_manager/device_manager_peripheral.o
 .debug_macro   0x0000000000000000       0x22 nrf51_sdk/nrf51822/Source/ble/device_manager/device_manager_peripheral.o
 .debug_macro   0x0000000000000000       0x58 nrf51_sdk/nrf51822/Source/ble/device_manager/device_manager_peripheral.o
 .debug_macro   0x0000000000000000       0x35 nrf51_sdk/nrf51822/Source/ble/device_manager/device_manager_peripheral.o
 .debug_macro   0x0000000000000000       0x9c nrf51_sdk/nrf51822/Source/ble/device_manager/device_manager_peripheral.o
 .debug_macro   0x0000000000000000      0x16d nrf51_sdk/nrf51822/Source/ble/device_manager/device_manager_peripheral.o
 .debug_macro   0x0000000000000000       0x52 nrf51_sdk/nrf51822/Source/ble/device_manager/device_manager_peripheral.o
 .debug_macro   0x0000000000000000       0x16 nrf51_sdk/nrf51822/Source/ble/device_manager/device_manager_peripheral.o
 .debug_macro   0x0000000000000000       0x43 nrf51_sdk/nrf51822/Source/ble/device_manager/device_manager_peripheral.o
 .debug_macro   0x0000000000000000      0x180 nrf51_sdk/nrf51822/Source/ble/device_manager/device_manager_peripheral.o
 .debug_macro   0x0000000000000000      0x27a nrf51_sdk/nrf51822/Source/ble/device_manager/device_manager_peripheral.o
 .debug_macro   0x0000000000000000       0x10 nrf51_sdk/nrf51822/Source/ble/device_manager/device_manager_peripheral.o
 .debug_macro   0x0000000000000000       0x35 nrf51_sdk/nrf51822/Source/ble/device_manager/device_manager_peripheral.o
 .debug_macro   0x0000000000000000       0xf4 nrf51_sdk/nrf51822/Source/ble/device_manager/device_manager_peripheral.o
 .debug_macro   0x0000000000000000       0x1c nrf51_sdk/nrf51822/Source/ble/device_manager/device_manager_peripheral.o
 .debug_macro   0x0000000000000000       0x22 nrf51_sdk/nrf51822/Source/ble/device_manager/device_manager_peripheral.o
 .debug_macro   0x0000000000000000       0x8e nrf51_sdk/nrf51822/Source/ble/device_manager/device_manager_peripheral.o
 .debug_macro   0x0000000000000000       0xd6 nrf51_sdk/nrf51822/Source/ble/device_manager/device_manager_peripheral.o
 .debug_macro   0x0000000000000000      0x1e1 nrf51_sdk/nrf51822/Source/ble/device_manager/device_manager_peripheral.o
 .debug_macro   0x0000000000000000       0x10 nrf51_sdk/nrf51822/Source/ble/device_manager/device_manager_peripheral.o
 .debug_macro   0x0000000000000000      0x308 nrf51_sdk/nrf51822/Source/ble/device_manager/device_manager_peripheral.o
 .debug_macro   0x0000000000000000       0x34 nrf51_sdk/nrf51822/Source/ble/device_manager/device_manager_peripheral.o
 .debug_macro   0x0000000000000000       0x22 nrf51_sdk/nrf51822/Source/ble/device_manager/device_manager_peripheral.o
 .debug_macro   0x0000000000000000      0x1d5 nrf51_sdk/nrf51822/Source/ble/device_manager/device_manager_peripheral.o
 .debug_macro   0x0000000000000000       0x16 nrf51_sdk/nrf51822/Source/ble/device_manager/device_manager_peripheral.o
 .debug_macro   0x0000000000000000       0xb8 nrf51_sdk/nrf51822/Source/ble/device_manager/device_manager_peripheral.o
 .debug_macro   0x0000000000000000       0x1c nrf51_sdk/nrf51822/Source/ble/device_manager/device_manager_peripheral.o
 .debug_macro   0x0000000000000000       0x28 nrf51_sdk/nrf51822/Source/ble/device_manager/device_manager_peripheral.o
 .debug_macro   0x0000000000000000       0x98 nrf51_sdk/nrf51822/Source/ble/device_manager/device_manager_peripheral.o
 .debug_macro   0x0000000000000000       0x1c nrf51_sdk/nrf51822/Source/ble/device_manager/device_manager_peripheral.o
 .debug_macro   0x0000000000000000       0x10 nrf51_sdk/nrf51822/Source/ble/device_manager/device_manager_peripheral.o
 .debug_macro   0x0000000000000000       0x10 nrf51_sdk/nrf51822/Source/ble/device_manager/device_manager_peripheral.o
 .debug_macro   0x0000000000000000       0x22 nrf51_sdk/nrf51822/Source/ble/device_manager/device_manager_peripheral.o
 .debug_macro   0x0000000000000000       0xbe nrf51_sdk/nrf51822/Source/ble/device_manager/device_manager_peripheral.o
 .debug_macro   0x0000000000000000       0x16 nrf51_sdk/nrf51822/Source/ble/device_manager/device_manager_peripheral.o
 .debug_macro   0x0000000000000000      0x197 nrf51_sdk/nrf51822/Source/ble/device_manager/device_manager_peripheral.o
 .debug_macro   0x0000000000000000       0x46 nrf51_sdk/nrf51822/Source/ble/device_manager/device_manager_peripheral.o
 .debug_macro   0x0000000000000000       0x22 nrf51_sdk/nrf51822/Source/ble/device_manager/device_manager_peripheral.o
 .debug_macro   0x0000000000000000       0xa6 nrf51_sdk/nrf51822/Source/ble/device_manager/device_manager_peripheral.o
 .group         0x0000000000000000        0x8 src/main.o
 .group         0x0000000000000000        0x8 src/main.o
 .group         0x0000000000000000        0x8 src/main.o
 .group         0x0000000000000000        0x8 src/main.o
 .group         0x0000000000000000        0x8 src/main.o
 .group         0x0000000000000000        0x8 src/main.o
 .group         0x0000000000000000        0x8 src/main.o
 .group         0x0000000000000000        0x8 src/main.o
 .group         0x0000000000000000        0x8 src/main.o
 .group         0x0000000000000000        0x8 src/main.o
 .group         0x0000000000000000        0x8 src/main.o
 .group         0x0000000000000000        0x8 src/main.o
 .group         0x0000000000000000        0x8 src/main.o
 .group         0x0000000000000000        0x8 src/main.o
 .group         0x0000000000000000        0x8 src/main.o
 .group         0x0000000000000000        0x8 src/main.o
 .group         0x0000000000000000        0x8 src/main.o
 .group         0x0000000000000000        0x8 src/main.o
 .group         0x0000000000000000        0x8 src/main.o
 .group         0x0000000000000000        0x8 src/main.o
 .group         0x0000000000000000        0x8 src/main.o
 .group         0x0000000000000000        0x8 src/main.o
 .group         0x0000000000000000        0x8 src/main.o
 .group         0x0000000000000000        0x8 src/main.o
 .group         0x0000000000000000        0x8 src/main.o
 .group         0x0000000000000000        0x8 src/main.o
 .group         0x0000000000000000        0x8 src/main.o
 .group         0x0000000000000000        0x8 src/main.o
 .group         0x0000000000000000        0x8 src/main.o
 .group         0x0000000000000000        0x8 src/main.o
 .group         0x0000000000000000        0x8 src/main.o
 .group         0x0000000000000000        0x8 src/main.o
 .group         0x0000000000000000        0x8 src/main.o
 .group         0x0000000000000000        0x8 src/main.o
 .group         0x0000000000000000        0x8 src/main.o
 .group         0x0000000000000000        0x8 src/main.o
 .group         0x0000000000000000        0x8 src/main.o
 .group         0x0000000000000000        0x8 src/main.o
 .group         0x0000000000000000        0x8 src/main.o
 .group         0x0000000000000000        0x8 src/main.o
 .group         0x0000000000000000        0x8 src/main.o
 .group         0x0000000000000000        0x8 src/main.o
 .group         0x0000000000000000        0x8 src/main.o
 .group         0x0000000000000000        0x8 src/main.o
 .group         0x0000000000000000        0x8 src/main.o
 .group         0x0000000000000000        0x8 src/main.o
 .group         0x0000000000000000        0x8 src/main.o
 .group         0x0000000000000000        0x8 src/main.o
 .group         0x0000000000000000        0x8 src/main.o
 .group         0x0000000000000000        0x8 src/main.o
 .group         0x0000000000000000        0x8 src/main.o
 .group         0x0000000000000000        0x8 src/main.o
 .group         0x0000000000000000        0x8 src/main.o
 .group         0x0000000000000000        0x8 src/main.o
 .group         0x0000000000000000        0x8 src/main.o
 .group         0x0000000000000000        0x8 src/main.o
 .group         0x0000000000000000        0x8 src/main.o
 .debug_macro   0x0000000000000000      0x850 src/main.o
 .debug_macro   0x0000000000000000       0x22 src/main.o
 .debug_macro   0x0000000000000000       0x3a src/main.o
 .debug_macro   0x0000000000000000       0x22 src/main.o
 .debug_macro   0x0000000000000000       0x44 src/main.o
 .debug_macro   0x0000000000000000       0xe3 src/main.o
 .debug_macro   0x0000000000000000       0x22 src/main.o
 .debug_macro   0x0000000000000000      0x1df src/main.o
 .debug_macro   0x0000000000000000       0x1f src/main.o
 .debug_macro   0x0000000000000000      0x242 src/main.o
 .debug_macro   0x0000000000000000      0x1e0 src/main.o
 .debug_macro   0x0000000000000000     0x74a3 src/main.o
 .debug_macro   0x0000000000000000      0x963 src/main.o
 .debug_macro   0x0000000000000000       0x10 src/main.o
 .debug_macro   0x0000000000000000       0x22 src/main.o
 .debug_macro   0x0000000000000000       0x10 src/main.o
 .debug_macro   0x0000000000000000       0x8e src/main.o
 .debug_macro   0x0000000000000000       0x40 src/main.o
 .debug_macro   0x0000000000000000       0x64 src/main.o
 .debug_macro   0x0000000000000000       0x58 src/main.o
 .debug_macro   0x0000000000000000       0x35 src/main.o
 .debug_macro   0x0000000000000000       0x9c src/main.o
 .debug_macro   0x0000000000000000       0x16 src/main.o
 .debug_macro   0x0000000000000000       0x97 src/main.o
 .debug_macro   0x0000000000000000      0x27a src/main.o
 .debug_macro   0x0000000000000000       0xf6 src/main.o
 .debug_macro   0x0000000000000000       0x10 src/main.o
 .debug_macro   0x0000000000000000       0x52 src/main.o
 .debug_macro   0x0000000000000000       0x16 src/main.o
 .debug_macro   0x0000000000000000       0x43 src/main.o
 .debug_macro   0x0000000000000000      0x180 src/main.o
 .debug_macro   0x0000000000000000       0x10 src/main.o
 .debug_macro   0x0000000000000000       0x22 src/main.o
 .debug_macro   0x0000000000000000       0xbe src/main.o
 .debug_macro   0x0000000000000000       0x16 src/main.o
 .debug_macro   0x0000000000000000      0x197 src/main.o
 .debug_macro   0x0000000000000000       0x16 src/main.o
 .debug_macro   0x0000000000000000       0x35 src/main.o
 .debug_macro   0x0000000000000000       0x28 src/main.o
 .debug_macro   0x0000000000000000       0x16 src/main.o
 .debug_macro   0x0000000000000000       0x16 src/main.o
 .debug_macro   0x0000000000000000       0x29 src/main.o
 .debug_macro   0x0000000000000000       0xd6 src/main.o
 .debug_macro   0x0000000000000000      0x1e1 src/main.o
 .debug_macro   0x0000000000000000      0x30e src/main.o
 .debug_macro   0x0000000000000000       0x3a src/main.o
 .debug_macro   0x0000000000000000       0x22 src/main.o
 .debug_macro   0x0000000000000000      0x1d5 src/main.o
 .debug_macro   0x0000000000000000       0x16 src/main.o
 .debug_macro   0x0000000000000000       0xb8 src/main.o
 .debug_macro   0x0000000000000000       0x1c src/main.o
 .group         0x0000000000000000        0x8 system_nrf51.o
 .group         0x0000000000000000        0x8 system_nrf51.o
 .group         0x0000000000000000        0x8 system_nrf51.o
 .group         0x0000000000000000        0x8 system_nrf51.o
 .group         0x0000000000000000        0x8 system_nrf51.o
 .group         0x0000000000000000        0x8 system_nrf51.o
 .group         0x0000000000000000        0x8 system_nrf51.o
 .group         0x0000000000000000        0x8 system_nrf51.o
 .group         0x0000000000000000        0x8 system_nrf51.o
 .group         0x0000000000000000        0x8 system_nrf51.o
 .group         0x0000000000000000        0x8 system_nrf51.o
 .group         0x0000000000000000        0x8 system_nrf51.o
 .group         0x0000000000000000        0x8 system_nrf51.o
 .group         0x0000000000000000        0x8 system_nrf51.o
 .group         0x0000000000000000        0x8 system_nrf51.o
 .debug_macro   0x0000000000000000      0x850 system_nrf51.o
 .debug_macro   0x0000000000000000       0x22 system_nrf51.o
 .debug_macro   0x0000000000000000       0x44 system_nrf51.o
 .debug_macro   0x0000000000000000       0xe3 system_nrf51.o
 .debug_macro   0x0000000000000000       0x22 system_nrf51.o
 .debug_macro   0x0000000000000000      0x1df system_nrf51.o
 .debug_macro   0x0000000000000000       0x22 system_nrf51.o
 .debug_macro   0x0000000000000000       0x22 system_nrf51.o
 .debug_macro   0x0000000000000000       0x3a system_nrf51.o
 .debug_macro   0x0000000000000000       0x1f system_nrf51.o
 .debug_macro   0x0000000000000000      0x242 system_nrf51.o
 .debug_macro   0x0000000000000000      0x1e0 system_nrf51.o
 .debug_macro   0x0000000000000000     0x74a3 system_nrf51.o
 .debug_macro   0x0000000000000000      0x963 system_nrf51.o
 .debug_macro   0x0000000000000000       0x10 system_nrf51.o
 .group         0x0000000000000000        0x8 src/uart.o
 .group         0x0000000000000000        0x8 src/uart.o
 .group         0x0000000000000000        0x8 src/uart.o
 .group         0x0000000000000000        0x8 src/uart.o
 .group         0x0000000000000000        0x8 src/uart.o
 .group         0x0000000000000000        0x8 src/uart.o
 .group         0x0000000000000000        0x8 src/uart.o
 .group         0x0000000000000000        0x8 src/uart.o
 .group         0x0000000000000000        0x8 src/uart.o
 .group         0x0000000000000000        0x8 src/uart.o
 .group         0x0000000000000000        0x8 src/uart.o
 .group         0x0000000000000000        0x8 src/uart.o
 .group         0x0000000000000000        0x8 src/uart.o
 .group         0x0000000000000000        0x8 src/uart.o
 .group         0x0000000000000000        0x8 src/uart.o
 .group         0x0000000000000000        0x8 src/uart.o
 .debug_macro   0x0000000000000000      0x850 src/uart.o
 .debug_macro   0x0000000000000000       0x22 src/uart.o
 .debug_macro   0x0000000000000000       0x22 src/uart.o
 .debug_macro   0x0000000000000000       0x3a src/uart.o
 .debug_macro   0x0000000000000000       0x22 src/uart.o
 .debug_macro   0x0000000000000000       0x44 src/uart.o
 .debug_macro   0x0000000000000000       0xe3 src/uart.o
 .debug_macro   0x0000000000000000       0x22 src/uart.o
 .debug_macro   0x0000000000000000      0x1df src/uart.o
 .debug_macro   0x0000000000000000       0x1f src/uart.o
 .debug_macro   0x0000000000000000      0x242 src/uart.o
 .debug_macro   0x0000000000000000      0x1e0 src/uart.o
 .debug_macro   0x0000000000000000     0x74a3 src/uart.o
 .debug_macro   0x0000000000000000      0x963 src/uart.o
 .debug_macro   0x0000000000000000       0x10 src/uart.o
 .debug_macro   0x0000000000000000       0xbe src/uart.o
 .group         0x0000000000000000        0x8 src/syslink.o
 .group         0x0000000000000000        0x8 src/syslink.o
 .group         0x0000000000000000        0x8 src/syslink.o
 .group         0x0000000000000000        0x8 src/syslink.o
 .group         0x0000000000000000        0x8 src/syslink.o
 .group         0x0000000000000000        0x8 src/syslink.o
 .group         0x0000000000000000        0x8 src/syslink.o
 .group         0x0000000000000000        0x8 src/syslink.o
 .group         0x0000000000000000        0x8 src/syslink.o
 .group         0x0000000000000000        0x8 src/syslink.o
 .group         0x0000000000000000        0x8 src/syslink.o
 .group         0x0000000000000000        0x8 src/syslink.o
 .group         0x0000000000000000        0x8 src/syslink.o
 .group         0x0000000000000000        0x8 src/syslink.o
 .group         0x0000000000000000        0x8 src/syslink.o
 .group         0x0000000000000000        0x8 src/syslink.o
 .group         0x0000000000000000        0x8 src/syslink.o
 .debug_macro   0x0000000000000000      0x850 src/syslink.o
 .debug_macro   0x0000000000000000       0x22 src/syslink.o
 .debug_macro   0x0000000000000000       0x22 src/syslink.o
 .debug_macro   0x0000000000000000       0x44 src/syslink.o
 .debug_macro   0x0000000000000000       0xe3 src/syslink.o
 .debug_macro   0x0000000000000000       0x22 src/syslink.o
 .debug_macro   0x0000000000000000      0x1df src/syslink.o
 .debug_macro   0x0000000000000000       0x22 src/syslink.o
 .debug_macro   0x0000000000000000       0x3a src/syslink.o
 .debug_macro   0x0000000000000000       0x1f src/syslink.o
 .debug_macro   0x0000000000000000      0x242 src/syslink.o
 .debug_macro   0x0000000000000000      0x1e0 src/syslink.o
 .debug_macro   0x0000000000000000     0x74a3 src/syslink.o
 .debug_macro   0x0000000000000000      0x963 src/syslink.o
 .debug_macro   0x0000000000000000       0x10 src/syslink.o
 .debug_macro   0x0000000000000000       0xbe src/syslink.o
 .group         0x0000000000000000        0x8 src/pm.o
 .group         0x0000000000000000        0x8 src/pm.o
 .group         0x0000000000000000        0x8 src/pm.o
 .group         0x0000000000000000        0x8 src/pm.o
 .group         0x0000000000000000        0x8 src/pm.o
 .group         0x0000000000000000        0x8 src/pm.o
 .group         0x0000000000000000        0x8 src/pm.o
 .group         0x0000000000000000        0x8 src/pm.o
 .group         0x0000000000000000        0x8 src/pm.o
 .group         0x0000000000000000        0x8 src/pm.o
 .group         0x0000000000000000        0x8 src/pm.o
 .group         0x0000000000000000        0x8 src/pm.o
 .group         0x0000000000000000        0x8 src/pm.o
 .group         0x0000000000000000        0x8 src/pm.o
 .group         0x0000000000000000        0x8 src/pm.o
 .group         0x0000000000000000        0x8 src/pm.o
 .group         0x0000000000000000        0x8 src/pm.o
 .group         0x0000000000000000        0x8 src/pm.o
 .group         0x0000000000000000        0x8 src/pm.o
 .group         0x0000000000000000        0x8 src/pm.o
 .group         0x0000000000000000        0x8 src/pm.o
 .group         0x0000000000000000        0x8 src/pm.o
 .group         0x0000000000000000        0x8 src/pm.o
 .debug_macro   0x0000000000000000      0x850 src/pm.o
 .debug_macro   0x0000000000000000       0x22 src/pm.o
 .debug_macro   0x0000000000000000       0x22 src/pm.o
 .debug_macro   0x0000000000000000       0x3a src/pm.o
 .debug_macro   0x0000000000000000       0x22 src/pm.o
 .debug_macro   0x0000000000000000       0x44 src/pm.o
 .debug_macro   0x0000000000000000       0xe3 src/pm.o
 .debug_macro   0x0000000000000000       0x22 src/pm.o
 .debug_macro   0x0000000000000000      0x1df src/pm.o
 .debug_macro   0x0000000000000000       0x1f src/pm.o
 .debug_macro   0x0000000000000000      0x242 src/pm.o
 .debug_macro   0x0000000000000000      0x1e0 src/pm.o
 .debug_macro   0x0000000000000000     0x74a3 src/pm.o
 .debug_macro   0x0000000000000000      0x963 src/pm.o
 .debug_macro   0x0000000000000000       0x10 src/pm.o
 .debug_macro   0x0000000000000000       0x10 src/pm.o
 .debug_macro   0x0000000000000000       0x8e src/pm.o
 .debug_macro   0x0000000000000000       0x40 src/pm.o
 .debug_macro   0x0000000000000000       0x64 src/pm.o
 .debug_macro   0x0000000000000000       0x16 src/pm.o
 .debug_macro   0x0000000000000000       0xbe src/pm.o
 .group         0x0000000000000000        0x8 src/systick.o
 .group         0x0000000000000000        0x8 src/systick.o
 .group         0x0000000000000000        0x8 src/systick.o
 .group         0x0000000000000000        0x8 src/systick.o
 .group         0x0000000000000000        0x8 src/systick.o
 .group         0x0000000000000000        0x8 src/systick.o
 .group         0x0000000000000000        0x8 src/systick.o
 .group         0x0000000000000000        0x8 src/systick.o
 .group         0x0000000000000000        0x8 src/systick.o
 .group         0x0000000000000000        0x8 src/systick.o
 .group         0x0000000000000000        0x8 src/systick.o
 .group         0x0000000000000000        0x8 src/systick.o
 .group         0x0000000000000000        0x8 src/systick.o
 .group         0x0000000000000000        0x8 src/systick.o
 .debug_macro   0x0000000000000000      0x850 src/systick.o
 .debug_macro   0x0000000000000000       0x22 src/systick.o
 .debug_macro   0x0000000000000000       0x3a src/systick.o
 .debug_macro   0x0000000000000000       0x22 src/systick.o
 .debug_macro   0x0000000000000000       0x44 src/systick.o
 .debug_macro   0x0000000000000000       0xe3 src/systick.o
 .debug_macro   0x0000000000000000       0x22 src/systick.o
 .debug_macro   0x0000000000000000      0x1df src/systick.o
 .debug_macro   0x0000000000000000       0x1f src/systick.o
 .debug_macro   0x0000000000000000      0x242 src/systick.o
 .debug_macro   0x0000000000000000      0x1e0 src/systick.o
 .debug_macro   0x0000000000000000     0x74a3 src/systick.o
 .debug_macro   0x0000000000000000      0x963 src/systick.o
 .debug_macro   0x0000000000000000       0x10 src/systick.o
 .group         0x0000000000000000        0x8 src/button.o
 .group         0x0000000000000000        0x8 src/button.o
 .group         0x0000000000000000        0x8 src/button.o
 .group         0x0000000000000000        0x8 src/button.o
 .group         0x0000000000000000        0x8 src/button.o
 .group         0x0000000000000000        0x8 src/button.o
 .group         0x0000000000000000        0x8 src/button.o
 .group         0x0000000000000000        0x8 src/button.o
 .group         0x0000000000000000        0x8 src/button.o
 .group         0x0000000000000000        0x8 src/button.o
 .group         0x0000000000000000        0x8 src/button.o
 .group         0x0000000000000000        0x8 src/button.o
 .group         0x0000000000000000        0x8 src/button.o
 .group         0x0000000000000000        0x8 src/button.o
 .group         0x0000000000000000        0x8 src/button.o
 .group         0x0000000000000000        0x8 src/button.o
 .group         0x0000000000000000        0x8 src/button.o
 .debug_macro   0x0000000000000000      0x850 src/button.o
 .debug_macro   0x0000000000000000       0x22 src/button.o
 .debug_macro   0x0000000000000000       0x22 src/button.o
 .debug_macro   0x0000000000000000       0x3a src/button.o
 .debug_macro   0x0000000000000000       0x22 src/button.o
 .debug_macro   0x0000000000000000       0x44 src/button.o
 .debug_macro   0x0000000000000000       0xe3 src/button.o
 .debug_macro   0x0000000000000000       0x22 src/button.o
 .debug_macro   0x0000000000000000      0x1df src/button.o
 .debug_macro   0x0000000000000000       0x1f src/button.o
 .debug_macro   0x0000000000000000      0x242 src/button.o
 .debug_macro   0x0000000000000000      0x1e0 src/button.o
 .debug_macro   0x0000000000000000     0x74a3 src/button.o
 .debug_macro   0x0000000000000000      0x963 src/button.o
 .debug_macro   0x0000000000000000       0x10 src/button.o
 .debug_macro   0x0000000000000000       0xbe src/button.o
 .debug_macro   0x0000000000000000       0x22 src/button.o
 .group         0x0000000000000000        0x8 src/swd.o
 .group         0x0000000000000000        0x8 src/swd.o
 .group         0x0000000000000000        0x8 src/swd.o
 .group         0x0000000000000000        0x8 src/swd.o
 .group         0x0000000000000000        0x8 src/swd.o
 .group         0x0000000000000000        0x8 src/swd.o
 .group         0x0000000000000000        0x8 src/swd.o
 .group         0x0000000000000000        0x8 src/swd.o
 .group         0x0000000000000000        0x8 src/swd.o
 .group         0x0000000000000000        0x8 src/swd.o
 .group         0x0000000000000000        0x8 src/swd.o
 .group         0x0000000000000000        0x8 src/swd.o
 .group         0x0000000000000000        0x8 src/swd.o
 .group         0x0000000000000000        0x8 src/swd.o
 .group         0x0000000000000000        0x8 src/swd.o
 .group         0x0000000000000000        0x8 src/swd.o
 .debug_macro   0x0000000000000000      0x850 src/swd.o
 .debug_macro   0x0000000000000000       0x22 src/swd.o
 .debug_macro   0x0000000000000000       0x22 src/swd.o
 .debug_macro   0x0000000000000000       0x3a src/swd.o
 .debug_macro   0x0000000000000000       0x22 src/swd.o
 .debug_macro   0x0000000000000000       0x44 src/swd.o
 .debug_macro   0x0000000000000000       0xe3 src/swd.o
 .debug_macro   0x0000000000000000       0x22 src/swd.o
 .debug_macro   0x0000000000000000      0x1df src/swd.o
 .debug_macro   0x0000000000000000       0x1f src/swd.o
 .debug_macro   0x0000000000000000      0x242 src/swd.o
 .debug_macro   0x0000000000000000      0x1e0 src/swd.o
 .debug_macro   0x0000000000000000     0x74a3 src/swd.o
 .debug_macro   0x0000000000000000      0x963 src/swd.o
 .debug_macro   0x0000000000000000       0x10 src/swd.o
 .debug_macro   0x0000000000000000       0xbe src/swd.o
 .group         0x0000000000000000        0x8 src/ow.o
 .group         0x0000000000000000        0x8 src/ow.o
 .group         0x0000000000000000        0x8 src/ow.o
 .group         0x0000000000000000        0x8 src/ow.o
 .group         0x0000000000000000        0x8 src/ow.o
 .group         0x0000000000000000        0x8 src/ow.o
 .group         0x0000000000000000        0x8 src/ow.o
 .group         0x0000000000000000        0x8 src/ow.o
 .group         0x0000000000000000        0x8 src/ow.o
 .group         0x0000000000000000        0x8 src/ow.o
 .group         0x0000000000000000        0x8 src/ow.o
 .group         0x0000000000000000        0x8 src/ow.o
 .group         0x0000000000000000        0x8 src/ow.o
 .group         0x0000000000000000        0x8 src/ow.o
 .group         0x0000000000000000        0x8 src/ow.o
 .group         0x0000000000000000        0x8 src/ow.o
 .group         0x0000000000000000        0x8 src/ow.o
 .group         0x0000000000000000        0x8 src/ow.o
 .group         0x0000000000000000        0x8 src/ow.o
 .group         0x0000000000000000        0x8 src/ow.o
 .group         0x0000000000000000        0x8 src/ow.o
 .group         0x0000000000000000        0x8 src/ow.o
 .group         0x0000000000000000        0x8 src/ow.o
 .group         0x0000000000000000        0x8 src/ow.o
 .group         0x0000000000000000        0x8 src/ow.o
 .group         0x0000000000000000        0x8 src/ow.o
 .debug_macro   0x0000000000000000      0x850 src/ow.o
 .debug_macro   0x0000000000000000       0x22 src/ow.o
 .debug_macro   0x0000000000000000       0x58 src/ow.o
 .debug_macro   0x0000000000000000       0x22 src/ow.o
 .debug_macro   0x0000000000000000       0x35 src/ow.o
 .debug_macro   0x0000000000000000       0x9c src/ow.o
 .debug_macro   0x0000000000000000      0x16d src/ow.o
 .debug_macro   0x0000000000000000       0x4a src/ow.o
 .debug_macro   0x0000000000000000       0x52 src/ow.o
 .debug_macro   0x0000000000000000       0x16 src/ow.o
 .debug_macro   0x0000000000000000       0x43 src/ow.o
 .debug_macro   0x0000000000000000      0x180 src/ow.o
 .debug_macro   0x0000000000000000       0x22 src/ow.o
 .debug_macro   0x0000000000000000       0x3a src/ow.o
 .debug_macro   0x0000000000000000       0xe3 src/ow.o
 .debug_macro   0x0000000000000000       0x22 src/ow.o
 .debug_macro   0x0000000000000000      0x1df src/ow.o
 .debug_macro   0x0000000000000000       0x1f src/ow.o
 .debug_macro   0x0000000000000000      0x242 src/ow.o
 .debug_macro   0x0000000000000000      0x1e0 src/ow.o
 .debug_macro   0x0000000000000000     0x74a3 src/ow.o
 .debug_macro   0x0000000000000000      0x963 src/ow.o
 .debug_macro   0x0000000000000000       0x10 src/ow.o
 .debug_macro   0x0000000000000000       0xbe src/ow.o
 .group         0x0000000000000000        0x8 src/ow/owlnk.o
 .group         0x0000000000000000        0x8 src/ow/owlnk.o
 .group         0x0000000000000000        0x8 src/ow/owlnk.o
 .group         0x0000000000000000        0x8 src/ow/owlnk.o
 .group         0x0000000000000000        0x8 src/ow/owlnk.o
 .group         0x0000000000000000        0x8 src/ow/owlnk.o
 .group         0x0000000000000000        0x8 src/ow/owlnk.o
 .group         0x0000000000000000        0x8 src/ow/owlnk.o
 .group         0x0000000000000000        0x8 src/ow/owlnk.o
 .group         0x0000000000000000        0x8 src/ow/owlnk.o
 .group         0x0000000000000000        0x8 src/ow/owlnk.o
 .group         0x0000000000000000        0x8 src/ow/owlnk.o
 .group         0x0000000000000000        0x8 src/ow/owlnk.o
 .group         0x0000000000000000        0x8 src/ow/owlnk.o
 .group         0x0000000000000000        0x8 src/ow/owlnk.o
 .group         0x0000000000000000        0x8 src/ow/owlnk.o
 .group         0x0000000000000000        0x8 src/ow/owlnk.o
 .group         0x0000000000000000        0x8 src/ow/owlnk.o
 .group         0x0000000000000000        0x8 src/ow/owlnk.o
 .group         0x0000000000000000        0x8 src/ow/owlnk.o
 .group         0x0000000000000000        0x8 src/ow/owlnk.o
 .group         0x0000000000000000        0x8 src/ow/owlnk.o
 .group         0x0000000000000000        0x8 src/ow/owlnk.o
 .group         0x0000000000000000        0x8 src/ow/owlnk.o
 .group         0x0000000000000000        0x8 src/ow/owlnk.o
 .group         0x0000000000000000        0x8 src/ow/owlnk.o
 .group         0x0000000000000000        0x8 src/ow/owlnk.o
 .group         0x0000000000000000        0x8 src/ow/owlnk.o
 .group         0x0000000000000000        0x8 src/ow/owlnk.o
 .group         0x0000000000000000        0x8 src/ow/owlnk.o
 .group         0x0000000000000000        0x8 src/ow/owlnk.o
 .group         0x0000000000000000        0x8 src/ow/owlnk.o
 .group         0x0000000000000000        0x8 src/ow/owlnk.o
 .group         0x0000000000000000        0x8 src/ow/owlnk.o
 .group         0x0000000000000000        0x8 src/ow/owlnk.o
 .group         0x0000000000000000        0x8 src/ow/owlnk.o
 .group         0x0000000000000000        0x8 src/ow/owlnk.o
 .group         0x0000000000000000        0x8 src/ow/owlnk.o
 .debug_macro   0x0000000000000000      0x850 src/ow/owlnk.o
 .debug_macro   0x0000000000000000       0x22 src/ow/owlnk.o
 .debug_macro   0x0000000000000000       0x22 src/ow/owlnk.o
 .debug_macro   0x0000000000000000       0x3a src/ow/owlnk.o
 .debug_macro   0x0000000000000000       0x22 src/ow/owlnk.o
 .debug_macro   0x0000000000000000       0x44 src/ow/owlnk.o
 .debug_macro   0x0000000000000000       0xe3 src/ow/owlnk.o
 .debug_macro   0x0000000000000000       0x22 src/ow/owlnk.o
 .debug_macro   0x0000000000000000      0x1df src/ow/owlnk.o
 .debug_macro   0x0000000000000000       0x1f src/ow/owlnk.o
 .debug_macro   0x0000000000000000      0x242 src/ow/owlnk.o
 .debug_macro   0x0000000000000000      0x1e0 src/ow/owlnk.o
 .debug_macro   0x0000000000000000     0x74a3 src/ow/owlnk.o
 .debug_macro   0x0000000000000000      0x963 src/ow/owlnk.o
 .debug_macro   0x0000000000000000       0x10 src/ow/owlnk.o
 .debug_macro   0x0000000000000000       0x58 src/ow/owlnk.o
 .debug_macro   0x0000000000000000       0x35 src/ow/owlnk.o
 .debug_macro   0x0000000000000000       0x9c src/ow/owlnk.o
 .debug_macro   0x0000000000000000       0x16 src/ow/owlnk.o
 .debug_macro   0x0000000000000000      0x10e src/ow/owlnk.o
 .debug_macro   0x0000000000000000       0x86 src/ow/owlnk.o
 .debug_macro   0x0000000000000000       0x52 src/ow/owlnk.o
 .debug_macro   0x0000000000000000       0x16 src/ow/owlnk.o
 .debug_macro   0x0000000000000000       0x43 src/ow/owlnk.o
 .debug_macro   0x0000000000000000      0x180 src/ow/owlnk.o
 .debug_macro   0x0000000000000000      0x27a src/ow/owlnk.o
 .debug_macro   0x0000000000000000       0x16 src/ow/owlnk.o
 .debug_macro   0x0000000000000000       0x29 src/ow/owlnk.o
 .debug_macro   0x0000000000000000       0x1c src/ow/owlnk.o
 .debug_macro   0x0000000000000000       0x35 src/ow/owlnk.o
 .debug_macro   0x0000000000000000       0x10 src/ow/owlnk.o
 .debug_macro   0x0000000000000000       0x10 src/ow/owlnk.o
 .debug_macro   0x0000000000000000       0x22 src/ow/owlnk.o
 .debug_macro   0x0000000000000000       0xbe src/ow/owlnk.o
 .debug_macro   0x0000000000000000       0x16 src/ow/owlnk.o
 .debug_macro   0x0000000000000000      0x197 src/ow/owlnk.o
 .debug_macro   0x0000000000000000      0x425 src/ow/owlnk.o
 .debug_macro   0x0000000000000000       0xbe src/ow/owlnk.o
 .group         0x0000000000000000        0x8 src/ow/ownet.o
 .group         0x0000000000000000        0x8 src/ow/ownet.o
 .group         0x0000000000000000        0x8 src/ow/ownet.o
 .group         0x0000000000000000        0x8 src/ow/ownet.o
 .group         0x0000000000000000        0x8 src/ow/ownet.o
 .group         0x0000000000000000        0x8 src/ow/ownet.o
 .group         0x0000000000000000        0x8 src/ow/ownet.o
 .group         0x0000000000000000        0x8 src/ow/ownet.o
 .group         0x0000000000000000        0x8 src/ow/ownet.o
 .group         0x0000000000000000        0x8 src/ow/ownet.o
 .group         0x0000000000000000        0x8 src/ow/ownet.o
 .group         0x0000000000000000        0x8 src/ow/ownet.o
 .group         0x0000000000000000        0x8 src/ow/ownet.o
 .group         0x0000000000000000        0x8 src/ow/ownet.o
 .group         0x0000000000000000        0x8 src/ow/ownet.o
 .group         0x0000000000000000        0x8 src/ow/ownet.o
 .group         0x0000000000000000        0x8 src/ow/ownet.o
 .group         0x0000000000000000        0x8 src/ow/ownet.o
 .group         0x0000000000000000        0x8 src/ow/ownet.o
 .group         0x0000000000000000        0x8 src/ow/ownet.o
 .group         0x0000000000000000        0x8 src/ow/ownet.o
 .group         0x0000000000000000        0x8 src/ow/ownet.o
 .group         0x0000000000000000        0x8 src/ow/ownet.o
 .group         0x0000000000000000        0x8 src/ow/ownet.o
 .group         0x0000000000000000        0x8 src/ow/ownet.o
 .group         0x0000000000000000        0x8 src/ow/ownet.o
 .debug_macro   0x0000000000000000      0x850 src/ow/ownet.o
 .debug_macro   0x0000000000000000       0x58 src/ow/ownet.o
 .debug_macro   0x0000000000000000       0x22 src/ow/ownet.o
 .debug_macro   0x0000000000000000       0x35 src/ow/ownet.o
 .debug_macro   0x0000000000000000       0x9c src/ow/ownet.o
 .debug_macro   0x0000000000000000       0x16 src/ow/ownet.o
 .debug_macro   0x0000000000000000       0x4a src/ow/ownet.o
 .debug_macro   0x0000000000000000       0x97 src/ow/ownet.o
 .debug_macro   0x0000000000000000      0x27a src/ow/ownet.o
 .debug_macro   0x0000000000000000       0xf6 src/ow/ownet.o
 .debug_macro   0x0000000000000000       0x10 src/ow/ownet.o
 .debug_macro   0x0000000000000000       0x52 src/ow/ownet.o
 .debug_macro   0x0000000000000000       0x16 src/ow/ownet.o
 .debug_macro   0x0000000000000000       0x43 src/ow/ownet.o
 .debug_macro   0x0000000000000000      0x180 src/ow/ownet.o
 .debug_macro   0x0000000000000000       0x10 src/ow/ownet.o
 .debug_macro   0x0000000000000000       0x22 src/ow/ownet.o
 .debug_macro   0x0000000000000000       0x22 src/ow/ownet.o
 .debug_macro   0x0000000000000000       0xbe src/ow/ownet.o
 .debug_macro   0x0000000000000000       0x16 src/ow/ownet.o
 .debug_macro   0x0000000000000000      0x197 src/ow/ownet.o
 .debug_macro   0x0000000000000000       0x16 src/ow/ownet.o
 .debug_macro   0x0000000000000000       0x35 src/ow/ownet.o
 .debug_macro   0x0000000000000000       0x16 src/ow/ownet.o
 .debug_macro   0x0000000000000000       0x29 src/ow/ownet.o
 .debug_macro   0x0000000000000000      0x425 src/ow/ownet.o
 .group         0x0000000000000000        0x8 src/ow/owtran.o
 .group         0x0000000000000000        0x8 src/ow/owtran.o
 .group         0x0000000000000000        0x8 src/ow/owtran.o
 .group         0x0000000000000000        0x8 src/ow/owtran.o
 .group         0x0000000000000000        0x8 src/ow/owtran.o
 .group         0x0000000000000000        0x8 src/ow/owtran.o
 .group         0x0000000000000000        0x8 src/ow/owtran.o
 .group         0x0000000000000000        0x8 src/ow/owtran.o
 .group         0x0000000000000000        0x8 src/ow/owtran.o
 .group         0x0000000000000000        0x8 src/ow/owtran.o
 .group         0x0000000000000000        0x8 src/ow/owtran.o
 .group         0x0000000000000000        0x8 src/ow/owtran.o
 .group         0x0000000000000000        0x8 src/ow/owtran.o
 .group         0x0000000000000000        0x8 src/ow/owtran.o
 .group         0x0000000000000000        0x8 src/ow/owtran.o
 .group         0x0000000000000000        0x8 src/ow/owtran.o
 .group         0x0000000000000000        0x8 src/ow/owtran.o
 .group         0x0000000000000000        0x8 src/ow/owtran.o
 .group         0x0000000000000000        0x8 src/ow/owtran.o
 .group         0x0000000000000000        0x8 src/ow/owtran.o
 .group         0x0000000000000000        0x8 src/ow/owtran.o
 .group         0x0000000000000000        0x8 src/ow/owtran.o
 .group         0x0000000000000000        0x8 src/ow/owtran.o
 .group         0x0000000000000000        0x8 src/ow/owtran.o
 .group         0x0000000000000000        0x8 src/ow/owtran.o
 .group         0x0000000000000000        0x8 src/ow/owtran.o
 .debug_macro   0x0000000000000000      0x850 src/ow/owtran.o
 .debug_macro   0x0000000000000000       0x58 src/ow/owtran.o
 .debug_macro   0x0000000000000000       0x22 src/ow/owtran.o
 .debug_macro   0x0000000000000000       0x35 src/ow/owtran.o
 .debug_macro   0x0000000000000000       0x9c src/ow/owtran.o
 .debug_macro   0x0000000000000000       0x16 src/ow/owtran.o
 .debug_macro   0x0000000000000000      0x10e src/ow/owtran.o
 .debug_macro   0x0000000000000000       0x86 src/ow/owtran.o
 .debug_macro   0x0000000000000000       0x4a src/ow/owtran.o
 .debug_macro   0x0000000000000000       0x52 src/ow/owtran.o
 .debug_macro   0x0000000000000000       0x16 src/ow/owtran.o
 .debug_macro   0x0000000000000000       0x43 src/ow/owtran.o
 .debug_macro   0x0000000000000000      0x180 src/ow/owtran.o
 .debug_macro   0x0000000000000000      0x27a src/ow/owtran.o
 .debug_macro   0x0000000000000000       0x16 src/ow/owtran.o
 .debug_macro   0x0000000000000000       0x29 src/ow/owtran.o
 .debug_macro   0x0000000000000000       0x1c src/ow/owtran.o
 .debug_macro   0x0000000000000000       0x35 src/ow/owtran.o
 .debug_macro   0x0000000000000000       0x10 src/ow/owtran.o
 .debug_macro   0x0000000000000000       0x10 src/ow/owtran.o
 .debug_macro   0x0000000000000000       0x22 src/ow/owtran.o
 .debug_macro   0x0000000000000000       0x22 src/ow/owtran.o
 .debug_macro   0x0000000000000000       0xbe src/ow/owtran.o
 .debug_macro   0x0000000000000000       0x16 src/ow/owtran.o
 .debug_macro   0x0000000000000000      0x197 src/ow/owtran.o
 .debug_macro   0x0000000000000000      0x425 src/ow/owtran.o
 .group         0x0000000000000000        0x8 src/ow/crcutil.o
 .group         0x0000000000000000        0x8 src/ow/crcutil.o
 .group         0x0000000000000000        0x8 src/ow/crcutil.o
 .group         0x0000000000000000        0x8 src/ow/crcutil.o
 .group         0x0000000000000000        0x8 src/ow/crcutil.o
 .group         0x0000000000000000        0x8 src/ow/crcutil.o
 .group         0x0000000000000000        0x8 src/ow/crcutil.o
 .group         0x0000000000000000        0x8 src/ow/crcutil.o
 .group         0x0000000000000000        0x8 src/ow/crcutil.o
 .group         0x0000000000000000        0x8 src/ow/crcutil.o
 .group         0x0000000000000000        0x8 src/ow/crcutil.o
 .group         0x0000000000000000        0x8 src/ow/crcutil.o
 .group         0x0000000000000000        0x8 src/ow/crcutil.o
 .group         0x0000000000000000        0x8 src/ow/crcutil.o
 .group         0x0000000000000000        0x8 src/ow/crcutil.o
 .group         0x0000000000000000        0x8 src/ow/crcutil.o
 .group         0x0000000000000000        0x8 src/ow/crcutil.o
 .group         0x0000000000000000        0x8 src/ow/crcutil.o
 .group         0x0000000000000000        0x8 src/ow/crcutil.o
 .group         0x0000000000000000        0x8 src/ow/crcutil.o
 .group         0x0000000000000000        0x8 src/ow/crcutil.o
 .group         0x0000000000000000        0x8 src/ow/crcutil.o
 .group         0x0000000000000000        0x8 src/ow/crcutil.o
 .group         0x0000000000000000        0x8 src/ow/crcutil.o
 .group         0x0000000000000000        0x8 src/ow/crcutil.o
 .group         0x0000000000000000        0x8 src/ow/crcutil.o
 .debug_macro   0x0000000000000000      0x850 src/ow/crcutil.o
 .debug_macro   0x0000000000000000       0x58 src/ow/crcutil.o
 .debug_macro   0x0000000000000000       0x22 src/ow/crcutil.o
 .debug_macro   0x0000000000000000       0x35 src/ow/crcutil.o
 .debug_macro   0x0000000000000000       0x9c src/ow/crcutil.o
 .debug_macro   0x0000000000000000       0x16 src/ow/crcutil.o
 .debug_macro   0x0000000000000000      0x10e src/ow/crcutil.o
 .debug_macro   0x0000000000000000       0x86 src/ow/crcutil.o
 .debug_macro   0x0000000000000000       0x4a src/ow/crcutil.o
 .debug_macro   0x0000000000000000       0x52 src/ow/crcutil.o
 .debug_macro   0x0000000000000000       0x16 src/ow/crcutil.o
 .debug_macro   0x0000000000000000       0x43 src/ow/crcutil.o
 .debug_macro   0x0000000000000000      0x180 src/ow/crcutil.o
 .debug_macro   0x0000000000000000      0x27a src/ow/crcutil.o
 .debug_macro   0x0000000000000000       0x16 src/ow/crcutil.o
 .debug_macro   0x0000000000000000       0x29 src/ow/crcutil.o
 .debug_macro   0x0000000000000000       0x1c src/ow/crcutil.o
 .debug_macro   0x0000000000000000       0x35 src/ow/crcutil.o
 .debug_macro   0x0000000000000000       0x10 src/ow/crcutil.o
 .debug_macro   0x0000000000000000       0x10 src/ow/crcutil.o
 .debug_macro   0x0000000000000000       0x22 src/ow/crcutil.o
 .debug_macro   0x0000000000000000       0x22 src/ow/crcutil.o
 .debug_macro   0x0000000000000000       0xbe src/ow/crcutil.o
 .debug_macro   0x0000000000000000       0x16 src/ow/crcutil.o
 .debug_macro   0x0000000000000000      0x197 src/ow/crcutil.o
 .debug_macro   0x0000000000000000      0x425 src/ow/crcutil.o
 .group         0x0000000000000000        0x8 src/ds2431.o
 .group         0x0000000000000000        0x8 src/ds2431.o
 .group         0x0000000000000000        0x8 src/ds2431.o
 .group         0x0000000000000000        0x8 src/ds2431.o
 .group         0x0000000000000000        0x8 src/ds2431.o
 .group         0x0000000000000000        0x8 src/ds2431.o
 .group         0x0000000000000000        0x8 src/ds2431.o
 .group         0x0000000000000000        0x8 src/ds2431.o
 .group         0x0000000000000000        0x8 src/ds2431.o
 .group         0x0000000000000000        0x8 src/ds2431.o
 .group         0x0000000000000000        0x8 src/ds2431.o
 .group         0x0000000000000000        0x8 src/ds2431.o
 .group         0x0000000000000000        0x8 src/ds2431.o
 .group         0x0000000000000000        0x8 src/ds2431.o
 .group         0x0000000000000000        0x8 src/ds2431.o
 .group         0x0000000000000000        0x8 src/ds2431.o
 .group         0x0000000000000000        0x8 src/ds2431.o
 .group         0x0000000000000000        0x8 src/ds2431.o
 .group         0x0000000000000000        0x8 src/ds2431.o
 .group         0x0000000000000000        0x8 src/ds2431.o
 .group         0x0000000000000000        0x8 src/ds2431.o
 .group         0x0000000000000000        0x8 src/ds2431.o
 .group         0x0000000000000000        0x8 src/ds2431.o
 .group         0x0000000000000000        0x8 src/ds2431.o
 .group         0x0000000000000000        0x8 src/ds2431.o
 .group         0x0000000000000000        0x8 src/ds2431.o
 .group         0x0000000000000000        0x8 src/ds2431.o
 .group         0x0000000000000000        0x8 src/ds2431.o
 .debug_macro   0x0000000000000000      0x850 src/ds2431.o
 .debug_macro   0x0000000000000000       0x22 src/ds2431.o
 .debug_macro   0x0000000000000000       0x44 src/ds2431.o
 .debug_macro   0x0000000000000000       0xe3 src/ds2431.o
 .debug_macro   0x0000000000000000       0x22 src/ds2431.o
 .debug_macro   0x0000000000000000      0x1df src/ds2431.o
 .debug_macro   0x0000000000000000       0x58 src/ds2431.o
 .debug_macro   0x0000000000000000       0x35 src/ds2431.o
 .debug_macro   0x0000000000000000       0x9c src/ds2431.o
 .debug_macro   0x0000000000000000      0x16d src/ds2431.o
 .debug_macro   0x0000000000000000       0x52 src/ds2431.o
 .debug_macro   0x0000000000000000       0x16 src/ds2431.o
 .debug_macro   0x0000000000000000       0x43 src/ds2431.o
 .debug_macro   0x0000000000000000      0x180 src/ds2431.o
 .debug_macro   0x0000000000000000      0x27a src/ds2431.o
 .debug_macro   0x0000000000000000       0x10 src/ds2431.o
 .debug_macro   0x0000000000000000       0x35 src/ds2431.o
 .debug_macro   0x0000000000000000       0x16 src/ds2431.o
 .debug_macro   0x0000000000000000       0x16 src/ds2431.o
 .debug_macro   0x0000000000000000       0x29 src/ds2431.o
 .debug_macro   0x0000000000000000       0x1c src/ds2431.o
 .debug_macro   0x0000000000000000       0x10 src/ds2431.o
 .debug_macro   0x0000000000000000       0x10 src/ds2431.o
 .debug_macro   0x0000000000000000       0x22 src/ds2431.o
 .debug_macro   0x0000000000000000       0xbe src/ds2431.o
 .debug_macro   0x0000000000000000       0x16 src/ds2431.o
 .debug_macro   0x0000000000000000      0x197 src/ds2431.o
 .debug_macro   0x0000000000000000      0x425 src/ds2431.o
 .group         0x0000000000000000        0x8 src/ds28e05.o
 .group         0x0000000000000000        0x8 src/ds28e05.o
 .group         0x0000000000000000        0x8 src/ds28e05.o
 .group         0x0000000000000000        0x8 src/ds28e05.o
 .group         0x0000000000000000        0x8 src/ds28e05.o
 .group         0x0000000000000000        0x8 src/ds28e05.o
 .group         0x0000000000000000        0x8 src/ds28e05.o
 .group         0x0000000000000000        0x8 src/ds28e05.o
 .group         0x0000000000000000        0x8 src/ds28e05.o
 .group         0x0000000000000000        0x8 src/ds28e05.o
 .group         0x0000000000000000        0x8 src/ds28e05.o
 .group         0x0000000000000000        0x8 src/ds28e05.o
 .group         0x0000000000000000        0x8 src/ds28e05.o
 .group         0x0000000000000000        0x8 src/ds28e05.o
 .group         0x0000000000000000        0x8 src/ds28e05.o
 .group         0x0000000000000000        0x8 src/ds28e05.o
 .group         0x0000000000000000        0x8 src/ds28e05.o
 .group         0x0000000000000000        0x8 src/ds28e05.o
 .group         0x0000000000000000        0x8 src/ds28e05.o
 .group         0x0000000000000000        0x8 src/ds28e05.o
 .group         0x0000000000000000        0x8 src/ds28e05.o
 .group         0x0000000000000000        0x8 src/ds28e05.o
 .group         0x0000000000000000        0x8 src/ds28e05.o
 .group         0x0000000000000000        0x8 src/ds28e05.o
 .group         0x0000000000000000        0x8 src/ds28e05.o
 .group         0x0000000000000000        0x8 src/ds28e05.o
 .group         0x0000000000000000        0x8 src/ds28e05.o
 .group         0x0000000000000000        0x8 src/ds28e05.o
 .group         0x0000000000000000        0x8 src/ds28e05.o
 .debug_macro   0x0000000000000000      0x850 src/ds28e05.o
 .debug_macro   0x0000000000000000       0x22 src/ds28e05.o
 .debug_macro   0x0000000000000000       0x44 src/ds28e05.o
 .debug_macro   0x0000000000000000       0xe3 src/ds28e05.o
 .debug_macro   0x0000000000000000       0x22 src/ds28e05.o
 .debug_macro   0x0000000000000000      0x1df src/ds28e05.o
 .debug_macro   0x0000000000000000       0x58 src/ds28e05.o
 .debug_macro   0x0000000000000000       0x35 src/ds28e05.o
 .debug_macro   0x0000000000000000       0x9c src/ds28e05.o
 .debug_macro   0x0000000000000000       0x16 src/ds28e05.o
 .debug_macro   0x0000000000000000       0x97 src/ds28e05.o
 .debug_macro   0x0000000000000000      0x27a src/ds28e05.o
 .debug_macro   0x0000000000000000       0xf6 src/ds28e05.o
 .debug_macro   0x0000000000000000       0x10 src/ds28e05.o
 .debug_macro   0x0000000000000000       0x52 src/ds28e05.o
 .debug_macro   0x0000000000000000       0x16 src/ds28e05.o
 .debug_macro   0x0000000000000000       0x43 src/ds28e05.o
 .debug_macro   0x0000000000000000      0x180 src/ds28e05.o
 .debug_macro   0x0000000000000000       0x10 src/ds28e05.o
 .debug_macro   0x0000000000000000       0x22 src/ds28e05.o
 .debug_macro   0x0000000000000000       0xbe src/ds28e05.o
 .debug_macro   0x0000000000000000       0x16 src/ds28e05.o
 .debug_macro   0x0000000000000000      0x197 src/ds28e05.o
 .debug_macro   0x0000000000000000       0x16 src/ds28e05.o
 .debug_macro   0x0000000000000000       0x35 src/ds28e05.o
 .debug_macro   0x0000000000000000       0x16 src/ds28e05.o
 .debug_macro   0x0000000000000000       0x16 src/ds28e05.o
 .debug_macro   0x0000000000000000       0x29 src/ds28e05.o
 .debug_macro   0x0000000000000000      0x425 src/ds28e05.o
 .group         0x0000000000000000        0x8 src/esb.o
 .group         0x0000000000000000        0x8 src/esb.o
 .group         0x0000000000000000        0x8 src/esb.o
 .group         0x0000000000000000        0x8 src/esb.o
 .group         0x0000000000000000        0x8 src/esb.o
 .group         0x0000000000000000        0x8 src/esb.o
 .group         0x0000000000000000        0x8 src/esb.o
 .group         0x0000000000000000        0x8 src/esb.o
 .group         0x0000000000000000        0x8 src/esb.o
 .group         0x0000000000000000        0x8 src/esb.o
 .group         0x0000000000000000        0x8 src/esb.o
 .group         0x0000000000000000        0x8 src/esb.o
 .group         0x0000000000000000        0x8 src/esb.o
 .group         0x0000000000000000        0x8 src/esb.o
 .group         0x0000000000000000        0x8 src/esb.o
 .group         0x0000000000000000        0x8 src/esb.o
 .group         0x0000000000000000        0x8 src/esb.o
 .group         0x0000000000000000        0x8 src/esb.o
 .group         0x0000000000000000        0x8 src/esb.o
 .group         0x0000000000000000        0x8 src/esb.o
 .group         0x0000000000000000        0x8 src/esb.o
 .group         0x0000000000000000        0x8 src/esb.o
 .group         0x0000000000000000        0x8 src/esb.o
 .group         0x0000000000000000        0x8 src/esb.o
 .group         0x0000000000000000        0x8 src/esb.o
 .group         0x0000000000000000        0x8 src/esb.o
 .group         0x0000000000000000        0x8 src/esb.o
 .group         0x0000000000000000        0x8 src/esb.o
 .group         0x0000000000000000        0x8 src/esb.o
 .group         0x0000000000000000        0x8 src/esb.o
 .group         0x0000000000000000        0x8 src/esb.o
 .group         0x0000000000000000        0x8 src/esb.o
 .group         0x0000000000000000        0x8 src/esb.o
 .group         0x0000000000000000        0x8 src/esb.o
 .group         0x0000000000000000        0x8 src/esb.o
 .group         0x0000000000000000        0x8 src/esb.o
 .group         0x0000000000000000        0x8 src/esb.o
 .group         0x0000000000000000        0x8 src/esb.o
 .group         0x0000000000000000        0x8 src/esb.o
 .debug_macro   0x0000000000000000      0x850 src/esb.o
 .debug_macro   0x0000000000000000       0x58 src/esb.o
 .debug_macro   0x0000000000000000       0x22 src/esb.o
 .debug_macro   0x0000000000000000       0x35 src/esb.o
 .debug_macro   0x0000000000000000       0x9c src/esb.o
 .debug_macro   0x0000000000000000       0x16 src/esb.o
 .debug_macro   0x0000000000000000      0x10e src/esb.o
 .debug_macro   0x0000000000000000       0x86 src/esb.o
 .debug_macro   0x0000000000000000       0x4a src/esb.o
 .debug_macro   0x0000000000000000       0x52 src/esb.o
 .debug_macro   0x0000000000000000       0x16 src/esb.o
 .debug_macro   0x0000000000000000       0x43 src/esb.o
 .debug_macro   0x0000000000000000      0x180 src/esb.o
 .debug_macro   0x0000000000000000      0x27a src/esb.o
 .debug_macro   0x0000000000000000       0x16 src/esb.o
 .debug_macro   0x0000000000000000       0x29 src/esb.o
 .debug_macro   0x0000000000000000       0x22 src/esb.o
 .debug_macro   0x0000000000000000       0x16 src/esb.o
 .debug_macro   0x0000000000000000       0x35 src/esb.o
 .debug_macro   0x0000000000000000       0xe3 src/esb.o
 .debug_macro   0x0000000000000000       0x22 src/esb.o
 .debug_macro   0x0000000000000000      0x1df src/esb.o
 .debug_macro   0x0000000000000000       0x16 src/esb.o
 .debug_macro   0x0000000000000000       0x22 src/esb.o
 .debug_macro   0x0000000000000000       0x3a src/esb.o
 .debug_macro   0x0000000000000000       0x1f src/esb.o
 .debug_macro   0x0000000000000000      0x242 src/esb.o
 .debug_macro   0x0000000000000000      0x1e0 src/esb.o
 .debug_macro   0x0000000000000000     0x74a3 src/esb.o
 .debug_macro   0x0000000000000000      0x963 src/esb.o
 .debug_macro   0x0000000000000000       0x10 src/esb.o
 .debug_macro   0x0000000000000000      0x1e1 src/esb.o
 .debug_macro   0x0000000000000000       0xd6 src/esb.o
 .debug_macro   0x0000000000000000       0x10 src/esb.o
 .debug_macro   0x0000000000000000      0x308 src/esb.o
 .debug_macro   0x0000000000000000       0x8e src/esb.o
 .debug_macro   0x0000000000000000       0x40 src/esb.o
 .debug_macro   0x0000000000000000       0x64 src/esb.o
 .group         0x0000000000000000        0x8 src/memory.o
 .group         0x0000000000000000        0x8 src/memory.o
 .group         0x0000000000000000        0x8 src/memory.o
 .group         0x0000000000000000        0x8 src/memory.o
 .group         0x0000000000000000        0x8 src/memory.o
 .group         0x0000000000000000        0x8 src/memory.o
 .group         0x0000000000000000        0x8 src/memory.o
 .group         0x0000000000000000        0x8 src/memory.o
 .group         0x0000000000000000        0x8 src/memory.o
 .group         0x0000000000000000        0x8 src/memory.o
 .group         0x0000000000000000        0x8 src/memory.o
 .group         0x0000000000000000        0x8 src/memory.o
 .group         0x0000000000000000        0x8 src/memory.o
 .group         0x0000000000000000        0x8 src/memory.o
 .group         0x0000000000000000        0x8 src/memory.o
 .group         0x0000000000000000        0x8 src/memory.o
 .group         0x0000000000000000        0x8 src/memory.o
 .group         0x0000000000000000        0x8 src/memory.o
 .group         0x0000000000000000        0x8 src/memory.o
 .group         0x0000000000000000        0x8 src/memory.o
 .group         0x0000000000000000        0x8 src/memory.o
 .group         0x0000000000000000        0x8 src/memory.o
 .group         0x0000000000000000        0x8 src/memory.o
 .group         0x0000000000000000        0x8 src/memory.o
 .group         0x0000000000000000        0x8 src/memory.o
 .group         0x0000000000000000        0x8 src/memory.o
 .group         0x0000000000000000        0x8 src/memory.o
 .group         0x0000000000000000        0x8 src/memory.o
 .group         0x0000000000000000        0x8 src/memory.o
 .group         0x0000000000000000        0x8 src/memory.o
 .group         0x0000000000000000        0x8 src/memory.o
 .debug_macro   0x0000000000000000      0x850 src/memory.o
 .debug_macro   0x0000000000000000       0x22 src/memory.o
 .debug_macro   0x0000000000000000       0x44 src/memory.o
 .debug_macro   0x0000000000000000       0xe3 src/memory.o
 .debug_macro   0x0000000000000000       0x22 src/memory.o
 .debug_macro   0x0000000000000000      0x1df src/memory.o
 .debug_macro   0x0000000000000000       0x22 src/memory.o
 .debug_macro   0x0000000000000000       0x88 src/memory.o
 .debug_macro   0x0000000000000000       0x58 src/memory.o
 .debug_macro   0x0000000000000000       0x35 src/memory.o
 .debug_macro   0x0000000000000000       0x9c src/memory.o
 .debug_macro   0x0000000000000000      0x16d src/memory.o
 .debug_macro   0x0000000000000000       0x52 src/memory.o
 .debug_macro   0x0000000000000000       0x16 src/memory.o
 .debug_macro   0x0000000000000000       0x43 src/memory.o
 .debug_macro   0x0000000000000000      0x180 src/memory.o
 .debug_macro   0x0000000000000000      0x27a src/memory.o
 .debug_macro   0x0000000000000000       0x10 src/memory.o
 .debug_macro   0x0000000000000000       0x35 src/memory.o
 .debug_macro   0x0000000000000000       0x16 src/memory.o
 .debug_macro   0x0000000000000000       0x16 src/memory.o
 .debug_macro   0x0000000000000000       0x29 src/memory.o
 .debug_macro   0x0000000000000000       0x1c src/memory.o
 .debug_macro   0x0000000000000000       0x10 src/memory.o
 .debug_macro   0x0000000000000000       0x10 src/memory.o
 .debug_macro   0x0000000000000000       0x22 src/memory.o
 .debug_macro   0x0000000000000000       0xbe src/memory.o
 .debug_macro   0x0000000000000000       0x16 src/memory.o
 .debug_macro   0x0000000000000000      0x197 src/memory.o
 .debug_macro   0x0000000000000000      0x425 src/memory.o

Memory Configuration

Name             Origin             Length             Attributes
FLASH            0x0000000000016000 0x000000000002a000 xr
RAM              0x0000000020002000 0x0000000000002000 xrw
*default*        0x0000000000000000 0xffffffffffffffff

Linker script and memory map

LOAD /usr/lib/gcc/arm-none-eabi/4.9.3/armv6-m/crti.o
LOAD /usr/lib/gcc/arm-none-eabi/4.9.3/armv6-m/crtbegin.o
LOAD /usr/lib/gcc/arm-none-eabi/4.9.3/../../../arm-none-eabi/lib/armv6-m/crt0.o
LOAD src/ble/ble.o
LOAD src/ble/ble_crazyflies.o
LOAD src/ble/timeslot.o
LOAD nrf51_sdk/nrf51822/Source/ble/ble_advdata.o
LOAD nrf51_sdk/nrf51822/Source/ble/ble_conn_params.o
LOAD nrf51_sdk/nrf51822/Source/ble/ble_services/ble_srv_common.o
LOAD nrf51_sdk/nrf51822/Source/ble/ble_services/ble_dis.o
LOAD nrf51_sdk/nrf51822/Source/sd_common/softdevice_handler.o
LOAD nrf51_sdk/nrf51822/Source/app_common/app_timer.o
LOAD nrf51_sdk/nrf51822/Source/app_common/pstorage.o
LOAD nrf51_sdk/nrf51822/Source/ble/device_manager/device_manager_peripheral.o
LOAD src/main.o
LOAD gcc_startup_nrf51.o
LOAD system_nrf51.o
LOAD src/uart.o
LOAD src/syslink.o
LOAD src/pm.o
LOAD src/systick.o
LOAD src/button.o
LOAD src/swd.o
LOAD src/ow.o
LOAD src/ow/owlnk.o
LOAD src/ow/ownet.o
LOAD src/ow/owtran.o
LOAD src/ow/crcutil.o
LOAD src/ds2431.o
LOAD src/ds28e05.o
LOAD src/esb.o
LOAD src/memory.o
START GROUP
LOAD /usr/lib/gcc/arm-none-eabi/4.9.3/armv6-m/libgcc.a
LOAD /usr/lib/gcc/arm-none-eabi/4.9.3/../../../arm-none-eabi/lib/armv6-m/libc_nano.a
END GROUP
START GROUP
LOAD /usr/lib/gcc/arm-none-eabi/4.9.3/armv6-m/libgcc.a
LOAD /usr/lib/gcc/arm-none-eabi/4.9.3/../../../arm-none-eabi/lib/armv6-m/libc_nano.a
END GROUP
LOAD /usr/lib/gcc/arm-none-eabi/4.9.3/armv6-m/crtend.o
LOAD /usr/lib/gcc/arm-none-eabi/4.9.3/armv6-m/crtn.o
START GROUP
LOAD /usr/lib/gcc/arm-none-eabi/4.9.3/armv6-m/libgcc.a
LOAD /usr/lib/gcc/arm-none-eabi/4.9.3/../../../arm-none-eabi/lib/armv6-m/libc.a
LOAD /usr/lib/gcc/arm-none-eabi/4.9.3/../../../arm-none-eabi/lib/armv6-m/libnosys.a
END GROUP

.text           0x0000000000016000     0xf3d0
 *(.Vectors)
 .Vectors       0x0000000000016000       0xc0 gcc_startup_nrf51.o
                0x0000000000016000                __Vectors
 *(.text*)
 .text          0x00000000000160c0        0x0 /usr/lib/gcc/arm-none-eabi/4.9.3/armv6-m/crti.o
 .text          0x00000000000160c0       0xb4 /usr/lib/gcc/arm-none-eabi/4.9.3/armv6-m/crtbegin.o
 .text          0x0000000000016174       0x6c /usr/lib/gcc/arm-none-eabi/4.9.3/../../../arm-none-eabi/lib/armv6-m/crt0.o
                0x0000000000016174                _mainCRTStartup
                0x0000000000016174                _start
 .text          0x00000000000161e0      0xb04 src/ble/ble.o
                0x0000000000016564                app_error_handler
                0x0000000000016578                assert_nrf_callback
                0x0000000000016b4c                advertising_start
                0x0000000000016b88                ble_advertising_stop
                0x0000000000016bbc                ble_sd_stop
                0x0000000000016c78                ble_init
 .text          0x0000000000016ce4      0x7a0 src/ble/ble_crazyflies.o
                0x0000000000016e94                ble_crazyflies_on_ble_evt
                0x0000000000017038                ble_crazyflies_init
                0x000000000001727c                bleCrazyfliesIsPacketReceived
                0x0000000000017290                bleCrazyfliesGetRxPacket
                0x00000000000172a0                bleCrazyfliesReleaseRxPacket
                0x00000000000172b8                bleCrazyfliesSendPacket
 .text          0x0000000000017484      0x2d4 src/ble/timeslot.o
                0x0000000000017710                timeslot_sd_evt_signal
                0x0000000000017738                timeslot_start
 .text          0x0000000000017758      0xca8 nrf51_sdk/nrf51822/Source/ble/ble_advdata.o
                0x0000000000018334                ble_advdata_set
 .text          0x0000000000018400      0x6b0 nrf51_sdk/nrf51822/Source/ble/ble_conn_params.o
                0x0000000000018700                ble_conn_params_init
                0x00000000000187ac                ble_conn_params_stop
                0x00000000000189b8                ble_conn_params_on_ble_evt
                0x0000000000018a08                ble_conn_params_change_conn_params
 .text          0x0000000000018ab0      0x158 nrf51_sdk/nrf51822/Source/ble/ble_services/ble_srv_common.o
                0x0000000000018b58                ble_srv_report_ref_encode
                0x0000000000018be0                ble_srv_ascii_to_utf8
 .text          0x0000000000018c08      0x7f8 nrf51_sdk/nrf51822/Source/ble/ble_services/ble_dis.o
                0x0000000000019194                ble_dis_init
 .text          0x0000000000019400      0x610 nrf51_sdk/nrf51822/Source/sd_common/softdevice_handler.o
                0x0000000000019784                softdevice_assertion_handler
                0x00000000000197ac                intern_softdevice_events_execute
                0x00000000000198c0                softdevice_handler_init
                0x000000000001994c                softdevice_handler_sd_disable
                0x0000000000019974                softdevice_ble_evt_handler_set
                0x000000000001999c                softdevice_sys_evt_handler_set
                0x00000000000199c4                SWI2_IRQHandler
 .text          0x0000000000019a10     0x13e0 nrf51_sdk/nrf51822/Source/app_common/app_timer.o
                0x000000000001a9d4                RTC1_IRQHandler
                0x000000000001aa20                SWI0_IRQHandler
                0x000000000001aa2c                app_timer_init
                0x000000000001aba8                app_timer_create
                0x000000000001ac98                app_timer_start
                0x000000000001ad24                app_timer_stop
                0x000000000001ad84                app_timer_stop_all
                0x000000000001adac                app_timer_cnt_get
                0x000000000001adc8                app_timer_cnt_diff_compute
 .text          0x000000000001adf0     0x137c nrf51_sdk/nrf51822/Source/app_common/pstorage.o
                0x000000000001b274                pstorage_sys_event_handler
                0x000000000001b89c                pstorage_init
                0x000000000001b974                pstorage_register
                0x000000000001bb58                pstorage_block_identifier_get
                0x000000000001bc38                pstorage_store
                0x000000000001bd80                pstorage_update
                0x000000000001bec8                pstorage_load
                0x000000000001c034                pstorage_clear
                0x000000000001c12c                pstorage_access_status_get
 .text          0x000000000001c16c     0x22b8 nrf51_sdk/nrf51822/Source/ble/device_manager/device_manager_peripheral.o
                0x000000000001ce0c                dm_init
                0x000000000001cf78                dm_register
                0x000000000001d010                dm_security_setup_req
                0x000000000001d0e8                dm_security_status_req
                0x000000000001d1d4                dm_whitelist_create
                0x000000000001d328                dm_device_add
                0x000000000001d340                dm_device_delete
                0x000000000001d3dc                dm_device_delete_all
                0x000000000001d478                dm_service_context_set
                0x000000000001d5c4                dm_service_context_get
                0x000000000001d710                dm_service_context_delete
                0x000000000001d7a4                dm_application_context_set
                0x000000000001d7bc                dm_application_context_get
                0x000000000001d7d4                dm_application_context_delete
                0x000000000001d7ec                dm_application_instance_set
                0x000000000001d860                dm_handle_initialize
                0x000000000001d9f4                dm_peer_addr_set
                0x000000000001dae8                dm_peer_addr_get
                0x000000000001dc54                bond_data_load
                0x000000000001dcd4                dm_ble_evt_handler
 .text          0x000000000001e424      0xb90 src/main.o
                0x000000000001e76c                main
 .text          0x000000000001efb4       0x48 gcc_startup_nrf51.o
                0x000000000001efb4                Reset_Handler
                0x000000000001eff0                NMI_Handler
                0x000000000001eff2                HardFault_Handler
                0x000000000001eff4                SVC_Handler
                0x000000000001eff6                PendSV_Handler
                0x000000000001eff8                SysTick_Handler
                0x000000000001effa                SPI0_TWI0_IRQHandler
                0x000000000001effa                RTC0_IRQHandler
                0x000000000001effa                GPIOTE_IRQHandler
                0x000000000001effa                POWER_CLOCK_IRQHandler
                0x000000000001effa                LPCOMP_IRQHandler
                0x000000000001effa                SWI4_IRQHandler
                0x000000000001effa                TEMP_IRQHandler
                0x000000000001effa                QDEC_IRQHandler
                0x000000000001effa                SWI5_IRQHandler
                0x000000000001effa                TIMER0_IRQHandler
                0x000000000001effa                ECB_IRQHandler
                0x000000000001effa                Default_Handler
                0x000000000001effa                ADC_IRQHandler
                0x000000000001effa                SWI3_IRQHandler
                0x000000000001effa                CCM_AAR_IRQHandler
                0x000000000001effa                WDT_IRQHandler
                0x000000000001effa                RNG_IRQHandler
                0x000000000001effa                SPI1_TWI1_IRQHandler
                0x000000000001effa                SWI1_IRQHandler
 .text          0x000000000001effc      0x124 system_nrf51.o
                0x000000000001effc                SystemCoreClockUpdate
                0x000000000001f014                SystemInit
 .text          0x000000000001f120      0x598 src/uart.o
                0x000000000001f24c                UART0_IRQHandler
                0x000000000001f2d8                uartInit
                0x000000000001f4fc                uartDeinit
                0x000000000001f54c                uartPuts
                0x000000000001f588                uartSend
                0x000000000001f5c8                uartPutc
                0x000000000001f618                uartIsDataReceived
                0x000000000001f650                uartGetc
 .text          0x000000000001f6b8      0x2d4 src/syslink.o
                0x000000000001f6b8                syslinkReceive
                0x000000000001f894                syslinkSend
 .text          0x000000000001f98c      0x6b8 src/pm.o
                0x000000000001fbd8                pmInit
                0x000000000001fc14                pmUSBPower
                0x000000000001fc2c                pmIsCharging
                0x000000000001fe40                pmSetState
                0x000000000001fe60                pmGetState
                0x000000000001fe74                pmGetVBAT
                0x000000000001fe88                pmGetISET
                0x000000000001fe9c                pmSysBootloader
                0x000000000001febc                pmProcess
 .text          0x0000000000020044      0x18c src/systick.o
                0x0000000000020144                TIMER2_IRQHandler
                0x0000000000020168                systickInit
                0x00000000000201bc                systickGetTick
 .text          0x00000000000201d0      0x138 src/button.o
                0x00000000000201fc                buttonInit
                0x000000000002023c                buttonProcess
                0x00000000000202e4                buttonGetState
 .text          0x0000000000020308      0x31c src/swd.o
                0x0000000000020354                swdInit
                0x00000000000203c4                swdTest
 .text          0x0000000000020624      0x1a4 src/ow.o
                0x0000000000020744                owInit
                0x00000000000207b0                owRaiseError
 .text          0x00000000000207c8      0x2ac src/ow/owlnk.o
                0x00000000000207c8                TIMER1_IRQHandler
                0x0000000000020870                owTouchReset
                0x00000000000208ec                owTouchBit
                0x000000000002095c                owTouchByte
                0x00000000000209b0                owWriteByte
                0x00000000000209dc                owReadByte
                0x00000000000209f8                owSpeed
                0x0000000000020a0c                owLevel
                0x0000000000020a20                owProgramPulse
                0x0000000000020a34                msDelay
                0x0000000000020a5c                msGettick
 .text          0x0000000000020a74      0x9a0 src/ow/ownet.o
                0x0000000000020a74                owFirst
                0x0000000000020ac4                owNext
                0x0000000000020df8                owSerialNum
                0x0000000000020e94                owFamilySearchSetup
                0x0000000000020f04                owSkipFamily
                0x0000000000020f50                owAccess
                0x0000000000021040                owVerify
                0x0000000000021240                owOverdriveAccess
                0x000000000002136c                bitacc
 .text          0x0000000000021414      0x290 src/ow/owtran.o
                0x0000000000021414                owBlock
                0x00000000000214a4                owProgramByte
 .text          0x00000000000216a4      0x1ac src/ow/crcutil.o
                0x00000000000216a4                setcrc16
                0x00000000000216d0                setcrc8
                0x00000000000216f8                docrc16
                0x0000000000021804                docrc8
 .text          0x0000000000021850      0x384 src/ds2431.o
                0x0000000000021850                ds2431ReadScratchpad
                0x000000000002192c                ds2431WriteScratchpad
                0x000000000002199c                ds2431ReadMemory
                0x0000000000021a18                ds2431CopyScratchpad
                0x0000000000021aa4                ds2431WriteMemory
 .text          0x0000000000021bd4      0x468 src/ds28e05.o
                0x0000000000021bd4                ds28e05ReadMemory
                0x0000000000021c5c                ds28e05WriteMemory
 .text          0x000000000002203c      0xca8 src/esb.o
                0x00000000000225ec                RADIO_IRQHandler
                0x00000000000225f8                esbInterruptHandler
                0x000000000002281c                esbInit
                0x00000000000229f0                esbReset
                0x0000000000022a2c                esbDeinit
                0x0000000000022a60                esbIsRxPacket
                0x0000000000022a84                esbGetRxPacket
                0x0000000000022ab8                esbReleaseRxPacket
                0x0000000000022ae4                esbCanTxPacket
                0x0000000000022b20                esbGetTxPacket
                0x0000000000022b54                esbSendTxPacket
                0x0000000000022b80                esbSetDatarate
                0x0000000000022ba4                esbSetContwave
                0x0000000000022bd8                esbSetChannel
                0x0000000000022bfc                esbSetTxPower
                0x0000000000022c18                esbSetTxPowerDbm
                0x0000000000022cc0                esbSetAddress
 .text          0x0000000000022ce4      0x234 src/memory.o
                0x0000000000022d38                owScan
                0x0000000000022da0                memoryInit
                0x0000000000022dcc                memorySyslink
 .text          0x0000000000022f18      0x120 /usr/lib/gcc/arm-none-eabi/4.9.3/armv6-m/libgcc.a(_udivsi3.o)
                0x0000000000022f18                __udivsi3
                0x0000000000022f18                __aeabi_uidiv
                0x0000000000023024                __aeabi_uidivmod
 .text          0x0000000000023038      0x1e0 /usr/lib/gcc/arm-none-eabi/4.9.3/armv6-m/libgcc.a(_divsi3.o)
                0x0000000000023038                __aeabi_idiv
                0x0000000000023038                __divsi3
                0x0000000000023204                __aeabi_idivmod
 .text          0x0000000000023218        0x4 /usr/lib/gcc/arm-none-eabi/4.9.3/armv6-m/libgcc.a(_dvmd_tls.o)
                0x0000000000023218                __aeabi_ldiv0
                0x0000000000023218                __aeabi_idiv0
 .text          0x000000000002321c      0x270 /usr/lib/gcc/arm-none-eabi/4.9.3/armv6-m/libgcc.a(divsf3.o)
                0x000000000002321c                __aeabi_fdiv
 .text          0x000000000002348c      0x264 /usr/lib/gcc/arm-none-eabi/4.9.3/armv6-m/libgcc.a(mulsf3.o)
                0x000000000002348c                __aeabi_fmul
 .text          0x00000000000236f0       0x90 /usr/lib/gcc/arm-none-eabi/4.9.3/armv6-m/libgcc.a(floatsisf.o)
                0x00000000000236f0                __aeabi_i2f
 .text          0x0000000000023780       0x3c /usr/lib/gcc/arm-none-eabi/4.9.3/armv6-m/libgcc.a(_clzsi2.o)
                0x0000000000023780                __clzsi2
 .text          0x00000000000237bc        0x0 /usr/lib/gcc/arm-none-eabi/4.9.3/../../../arm-none-eabi/lib/armv6-m/libc_nano.a(lib_a-atexit.o)
 .text.atexit   0x00000000000237bc       0x10 /usr/lib/gcc/arm-none-eabi/4.9.3/../../../arm-none-eabi/lib/armv6-m/libc_nano.a(lib_a-atexit.o)
                0x00000000000237bc                atexit
 .text          0x00000000000237cc        0x0 /usr/lib/gcc/arm-none-eabi/4.9.3/../../../arm-none-eabi/lib/armv6-m/libc_nano.a(lib_a-bzero.o)
 .text.bzero    0x00000000000237cc       0x10 /usr/lib/gcc/arm-none-eabi/4.9.3/../../../arm-none-eabi/lib/armv6-m/libc_nano.a(lib_a-bzero.o)
                0x00000000000237cc                bzero
 .text          0x00000000000237dc        0x0 /usr/lib/gcc/arm-none-eabi/4.9.3/../../../arm-none-eabi/lib/armv6-m/libc_nano.a(lib_a-errno.o)
 .text.__errno  0x00000000000237dc        0xc /usr/lib/gcc/arm-none-eabi/4.9.3/../../../arm-none-eabi/lib/armv6-m/libc_nano.a(lib_a-errno.o)
                0x00000000000237dc                __errno
 .text          0x00000000000237e8        0x0 /usr/lib/gcc/arm-none-eabi/4.9.3/../../../arm-none-eabi/lib/armv6-m/libc_nano.a(lib_a-exit.o)
 .text.exit     0x00000000000237e8       0x2c /usr/lib/gcc/arm-none-eabi/4.9.3/../../../arm-none-eabi/lib/armv6-m/libc_nano.a(lib_a-exit.o)
                0x00000000000237e8                exit
 .text          0x0000000000023814        0x0 /usr/lib/gcc/arm-none-eabi/4.9.3/../../../arm-none-eabi/lib/armv6-m/libc_nano.a(lib_a-fini.o)
 .text.__libc_fini_array
                0x0000000000023814       0x28 /usr/lib/gcc/arm-none-eabi/4.9.3/../../../arm-none-eabi/lib/armv6-m/libc_nano.a(lib_a-fini.o)
                0x0000000000023814                __libc_fini_array
 .text          0x000000000002383c        0x0 /usr/lib/gcc/arm-none-eabi/4.9.3/../../../arm-none-eabi/lib/armv6-m/libc_nano.a(lib_a-impure.o)
 .text          0x000000000002383c        0x0 /usr/lib/gcc/arm-none-eabi/4.9.3/../../../arm-none-eabi/lib/armv6-m/libc_nano.a(lib_a-init.o)
 .text.__libc_init_array
                0x000000000002383c       0x4c /usr/lib/gcc/arm-none-eabi/4.9.3/../../../arm-none-eabi/lib/armv6-m/libc_nano.a(lib_a-init.o)
                0x000000000002383c                __libc_init_array
 .text          0x0000000000023888        0x0 /usr/lib/gcc/arm-none-eabi/4.9.3/../../../arm-none-eabi/lib/armv6-m/libc_nano.a(lib_a-memcmp.o)
 .text.memcmp   0x0000000000023888       0x1e /usr/lib/gcc/arm-none-eabi/4.9.3/../../../arm-none-eabi/lib/armv6-m/libc_nano.a(lib_a-memcmp.o)
                0x0000000000023888                memcmp
 .text          0x00000000000238a6        0x0 /usr/lib/gcc/arm-none-eabi/4.9.3/../../../arm-none-eabi/lib/armv6-m/libc_nano.a(lib_a-memcpy.o)
 .text.memcpy   0x00000000000238a6       0x12 /usr/lib/gcc/arm-none-eabi/4.9.3/../../../arm-none-eabi/lib/armv6-m/libc_nano.a(lib_a-memcpy.o)
                0x00000000000238a6                memcpy
 .text          0x00000000000238b8        0x0 /usr/lib/gcc/arm-none-eabi/4.9.3/../../../arm-none-eabi/lib/armv6-m/libc_nano.a(lib_a-memset.o)
 .text.memset   0x00000000000238b8       0x10 /usr/lib/gcc/arm-none-eabi/4.9.3/../../../arm-none-eabi/lib/armv6-m/libc_nano.a(lib_a-memset.o)
                0x00000000000238b8                memset
 .text          0x00000000000238c8        0x0 /usr/lib/gcc/arm-none-eabi/4.9.3/../../../arm-none-eabi/lib/armv6-m/libc_nano.a(lib_a-printf.o)
 .text._printf_r
                0x00000000000238c8       0x28 /usr/lib/gcc/arm-none-eabi/4.9.3/../../../arm-none-eabi/lib/armv6-m/libc_nano.a(lib_a-printf.o)
                0x00000000000238c8                _printf_r
                0x00000000000238c8                _iprintf_r
 .text.printf   0x00000000000238f0       0x34 /usr/lib/gcc/arm-none-eabi/4.9.3/../../../arm-none-eabi/lib/armv6-m/libc_nano.a(lib_a-printf.o)
                0x00000000000238f0                printf
                0x00000000000238f0                iprintf
 .text          0x0000000000023924        0x0 /usr/lib/gcc/arm-none-eabi/4.9.3/../../../arm-none-eabi/lib/armv6-m/libc_nano.a(lib_a-strlen.o)
 .text.strlen   0x0000000000023924        0xe /usr/lib/gcc/arm-none-eabi/4.9.3/../../../arm-none-eabi/lib/armv6-m/libc_nano.a(lib_a-strlen.o)
                0x0000000000023924                strlen
 .text          0x0000000000023932        0x0 /usr/lib/gcc/arm-none-eabi/4.9.3/../../../arm-none-eabi/lib/armv6-m/libc_nano.a(lib_a-__atexit.o)
 *fill*         0x0000000000023932        0x2 
 .text.__register_exitproc
                0x0000000000023934       0xb8 /usr/lib/gcc/arm-none-eabi/4.9.3/../../../arm-none-eabi/lib/armv6-m/libc_nano.a(lib_a-__atexit.o)
                0x0000000000023934                __register_exitproc
 .text          0x00000000000239ec        0x0 /usr/lib/gcc/arm-none-eabi/4.9.3/../../../arm-none-eabi/lib/armv6-m/libc_nano.a(lib_a-__call_atexit.o)
 .text.__call_exitprocs
                0x00000000000239ec       0xe8 /usr/lib/gcc/arm-none-eabi/4.9.3/../../../arm-none-eabi/lib/armv6-m/libc_nano.a(lib_a-__call_atexit.o)
                0x00000000000239ec                __call_exitprocs
 .text          0x0000000000023ad4        0x0 /usr/lib/gcc/arm-none-eabi/4.9.3/../../../arm-none-eabi/lib/armv6-m/libc_nano.a(lib_a-findfp.o)
 .text.__fp_lock
                0x0000000000023ad4        0x4 /usr/lib/gcc/arm-none-eabi/4.9.3/../../../arm-none-eabi/lib/armv6-m/libc_nano.a(lib_a-findfp.o)
 .text.__fp_unlock
                0x0000000000023ad8        0x4 /usr/lib/gcc/arm-none-eabi/4.9.3/../../../arm-none-eabi/lib/armv6-m/libc_nano.a(lib_a-findfp.o)
 .text._cleanup_r
                0x0000000000023adc       0x10 /usr/lib/gcc/arm-none-eabi/4.9.3/../../../arm-none-eabi/lib/armv6-m/libc_nano.a(lib_a-findfp.o)
                0x0000000000023adc                _cleanup_r
 .text.std.isra.0
                0x0000000000023aec       0x48 /usr/lib/gcc/arm-none-eabi/4.9.3/../../../arm-none-eabi/lib/armv6-m/libc_nano.a(lib_a-findfp.o)
 .text.__sfmoreglue
                0x0000000000023b34       0x2c /usr/lib/gcc/arm-none-eabi/4.9.3/../../../arm-none-eabi/lib/armv6-m/libc_nano.a(lib_a-findfp.o)
                0x0000000000023b34                __sfmoreglue
 .text._cleanup
                0x0000000000023b60       0x10 /usr/lib/gcc/arm-none-eabi/4.9.3/../../../arm-none-eabi/lib/armv6-m/libc_nano.a(lib_a-findfp.o)
                0x0000000000023b60                _cleanup
 .text.__sinit  0x0000000000023b70       0x64 /usr/lib/gcc/arm-none-eabi/4.9.3/../../../arm-none-eabi/lib/armv6-m/libc_nano.a(lib_a-findfp.o)
                0x0000000000023b70                __sinit
 .text.__sfp    0x0000000000023bd4       0x7c /usr/lib/gcc/arm-none-eabi/4.9.3/../../../arm-none-eabi/lib/armv6-m/libc_nano.a(lib_a-findfp.o)
                0x0000000000023bd4                __sfp
 .text.__sfp_lock_acquire
                0x0000000000023c50        0x2 /usr/lib/gcc/arm-none-eabi/4.9.3/../../../arm-none-eabi/lib/armv6-m/libc_nano.a(lib_a-findfp.o)
                0x0000000000023c50                __sfp_lock_acquire
 .text.__sfp_lock_release
                0x0000000000023c52        0x2 /usr/lib/gcc/arm-none-eabi/4.9.3/../../../arm-none-eabi/lib/armv6-m/libc_nano.a(lib_a-findfp.o)
                0x0000000000023c52                __sfp_lock_release
 .text.__sinit_lock_acquire
                0x0000000000023c54        0x2 /usr/lib/gcc/arm-none-eabi/4.9.3/../../../arm-none-eabi/lib/armv6-m/libc_nano.a(lib_a-findfp.o)
                0x0000000000023c54                __sinit_lock_acquire
 .text.__sinit_lock_release
                0x0000000000023c56        0x2 /usr/lib/gcc/arm-none-eabi/4.9.3/../../../arm-none-eabi/lib/armv6-m/libc_nano.a(lib_a-findfp.o)
                0x0000000000023c56                __sinit_lock_release
 .text.__fp_lock_all
                0x0000000000023c58       0x18 /usr/lib/gcc/arm-none-eabi/4.9.3/../../../arm-none-eabi/lib/armv6-m/libc_nano.a(lib_a-findfp.o)
                0x0000000000023c58                __fp_lock_all
 .text.__fp_unlock_all
                0x0000000000023c70       0x18 /usr/lib/gcc/arm-none-eabi/4.9.3/../../../arm-none-eabi/lib/armv6-m/libc_nano.a(lib_a-findfp.o)
                0x0000000000023c70                __fp_unlock_all
 .text          0x0000000000023c88        0x0 /usr/lib/gcc/arm-none-eabi/4.9.3/../../../arm-none-eabi/lib/armv6-m/libc_nano.a(lib_a-fwalk.o)
 .text._fwalk   0x0000000000023c88       0x38 /usr/lib/gcc/arm-none-eabi/4.9.3/../../../arm-none-eabi/lib/armv6-m/libc_nano.a(lib_a-fwalk.o)
                0x0000000000023c88                _fwalk
 .text._fwalk_reent
                0x0000000000023cc0       0x42 /usr/lib/gcc/arm-none-eabi/4.9.3/../../../arm-none-eabi/lib/armv6-m/libc_nano.a(lib_a-fwalk.o)
                0x0000000000023cc0                _fwalk_reent
 .text          0x0000000000023d02        0x0 /usr/lib/gcc/arm-none-eabi/4.9.3/../../../arm-none-eabi/lib/armv6-m/libc_nano.a(lib_a-nano-mallocr.o)
 *fill*         0x0000000000023d02        0x2 
 .text._malloc_r
                0x0000000000023d04       0xb0 /usr/lib/gcc/arm-none-eabi/4.9.3/../../../arm-none-eabi/lib/armv6-m/libc_nano.a(lib_a-nano-mallocr.o)
                0x0000000000023d04                _malloc_r
 .text          0x0000000000023db4        0x0 /usr/lib/gcc/arm-none-eabi/4.9.3/../../../arm-none-eabi/lib/armv6-m/libc_nano.a(lib_a-nano-vfprintf.o)
 .text.__sfputc_r
                0x0000000000023db4       0x2a /usr/lib/gcc/arm-none-eabi/4.9.3/../../../arm-none-eabi/lib/armv6-m/libc_nano.a(lib_a-nano-vfprintf.o)
 .text.__sfputs_r
                0x0000000000023dde       0x24 /usr/lib/gcc/arm-none-eabi/4.9.3/../../../arm-none-eabi/lib/armv6-m/libc_nano.a(lib_a-nano-vfprintf.o)
                0x0000000000023dde                __sfputs_r
 .text.__sprint_r
                0x0000000000023e02       0x1c /usr/lib/gcc/arm-none-eabi/4.9.3/../../../arm-none-eabi/lib/armv6-m/libc_nano.a(lib_a-nano-vfprintf.o)
                0x0000000000023e02                __sprint_r
 *fill*         0x0000000000023e1e        0x2 
 .text._vfprintf_r
                0x0000000000023e20      0x220 /usr/lib/gcc/arm-none-eabi/4.9.3/../../../arm-none-eabi/lib/armv6-m/libc_nano.a(lib_a-nano-vfprintf.o)
                0x0000000000023e20                _vfiprintf_r
                0x0000000000023e20                _vfprintf_r
 .text.vfprintf
                0x0000000000024040       0x1c /usr/lib/gcc/arm-none-eabi/4.9.3/../../../arm-none-eabi/lib/armv6-m/libc_nano.a(lib_a-nano-vfprintf.o)
                0x0000000000024040                vfiprintf
                0x0000000000024040                vfprintf
 .text          0x000000000002405c        0x0 /usr/lib/gcc/arm-none-eabi/4.9.3/../../../arm-none-eabi/lib/armv6-m/libc_nano.a(lib_a-nano-vfprintf_i.o)
 .text._printf_common
                0x000000000002405c       0xdc /usr/lib/gcc/arm-none-eabi/4.9.3/../../../arm-none-eabi/lib/armv6-m/libc_nano.a(lib_a-nano-vfprintf_i.o)
                0x000000000002405c                _printf_common
 .text._printf_i
                0x0000000000024138      0x230 /usr/lib/gcc/arm-none-eabi/4.9.3/../../../arm-none-eabi/lib/armv6-m/libc_nano.a(lib_a-nano-vfprintf_i.o)
                0x0000000000024138                _printf_i
 .text          0x0000000000024368        0x0 /usr/lib/gcc/arm-none-eabi/4.9.3/../../../arm-none-eabi/lib/armv6-m/libc_nano.a(lib_a-sbrkr.o)
 .text._sbrk_r  0x0000000000024368       0x24 /usr/lib/gcc/arm-none-eabi/4.9.3/../../../arm-none-eabi/lib/armv6-m/libc_nano.a(lib_a-sbrkr.o)
                0x0000000000024368                _sbrk_r
 .text          0x000000000002438c        0x0 /usr/lib/gcc/arm-none-eabi/4.9.3/../../../arm-none-eabi/lib/armv6-m/libc_nano.a(lib_a-stdio.o)
 .text.__sread  0x000000000002438c       0x28 /usr/lib/gcc/arm-none-eabi/4.9.3/../../../arm-none-eabi/lib/armv6-m/libc_nano.a(lib_a-stdio.o)
                0x000000000002438c                __sread
 .text.__seofread
                0x00000000000243b4        0x4 /usr/lib/gcc/arm-none-eabi/4.9.3/../../../arm-none-eabi/lib/armv6-m/libc_nano.a(lib_a-stdio.o)
                0x00000000000243b4                __seofread
 .text.__swrite
                0x00000000000243b8       0x38 /usr/lib/gcc/arm-none-eabi/4.9.3/../../../arm-none-eabi/lib/armv6-m/libc_nano.a(lib_a-stdio.o)
                0x00000000000243b8                __swrite
 .text.__sseek  0x00000000000243f0       0x2c /usr/lib/gcc/arm-none-eabi/4.9.3/../../../arm-none-eabi/lib/armv6-m/libc_nano.a(lib_a-stdio.o)
                0x00000000000243f0                __sseek
 .text.__sclose
                0x000000000002441c        0xc /usr/lib/gcc/arm-none-eabi/4.9.3/../../../arm-none-eabi/lib/armv6-m/libc_nano.a(lib_a-stdio.o)
                0x000000000002441c                __sclose
 .text          0x0000000000024428        0x0 /usr/lib/gcc/arm-none-eabi/4.9.3/../../../arm-none-eabi/lib/armv6-m/libc_nano.a(lib_a-wbuf.o)
 .text.__swbuf_r
                0x0000000000024428       0xb0 /usr/lib/gcc/arm-none-eabi/4.9.3/../../../arm-none-eabi/lib/armv6-m/libc_nano.a(lib_a-wbuf.o)
                0x0000000000024428                __swbuf_r
 .text.__swbuf  0x00000000000244d8       0x18 /usr/lib/gcc/arm-none-eabi/4.9.3/../../../arm-none-eabi/lib/armv6-m/libc_nano.a(lib_a-wbuf.o)
                0x00000000000244d8                __swbuf
 .text          0x00000000000244f0        0x0 /usr/lib/gcc/arm-none-eabi/4.9.3/../../../arm-none-eabi/lib/armv6-m/libc_nano.a(lib_a-writer.o)
 .text._write_r
                0x00000000000244f0       0x28 /usr/lib/gcc/arm-none-eabi/4.9.3/../../../arm-none-eabi/lib/armv6-m/libc_nano.a(lib_a-writer.o)
                0x00000000000244f0                _write_r
 .text          0x0000000000024518        0x0 /usr/lib/gcc/arm-none-eabi/4.9.3/../../../arm-none-eabi/lib/armv6-m/libc_nano.a(lib_a-wsetup.o)
 .text.__swsetup_r
                0x0000000000024518       0xe8 /usr/lib/gcc/arm-none-eabi/4.9.3/../../../arm-none-eabi/lib/armv6-m/libc_nano.a(lib_a-wsetup.o)
                0x0000000000024518                __swsetup_r
 .text          0x0000000000024600        0x0 /usr/lib/gcc/arm-none-eabi/4.9.3/../../../arm-none-eabi/lib/armv6-m/libc_nano.a(lib_a-closer.o)
 .text._close_r
                0x0000000000024600       0x24 /usr/lib/gcc/arm-none-eabi/4.9.3/../../../arm-none-eabi/lib/armv6-m/libc_nano.a(lib_a-closer.o)
                0x0000000000024600                _close_r
 .text          0x0000000000024624        0x0 /usr/lib/gcc/arm-none-eabi/4.9.3/../../../arm-none-eabi/lib/armv6-m/libc_nano.a(lib_a-fflush.o)
 .text.__sflush_r
                0x0000000000024624      0x112 /usr/lib/gcc/arm-none-eabi/4.9.3/../../../arm-none-eabi/lib/armv6-m/libc_nano.a(lib_a-fflush.o)
                0x0000000000024624                __sflush_r
 *fill*         0x0000000000024736        0x2 
 .text._fflush_r
                0x0000000000024738       0x58 /usr/lib/gcc/arm-none-eabi/4.9.3/../../../arm-none-eabi/lib/armv6-m/libc_nano.a(lib_a-fflush.o)
                0x0000000000024738                _fflush_r
 .text.fflush   0x0000000000024790       0x28 /usr/lib/gcc/arm-none-eabi/4.9.3/../../../arm-none-eabi/lib/armv6-m/libc_nano.a(lib_a-fflush.o)
                0x0000000000024790                fflush
 .text          0x00000000000247b8        0x0 /usr/lib/gcc/arm-none-eabi/4.9.3/../../../arm-none-eabi/lib/armv6-m/libc_nano.a(lib_a-fvwrite.o)
 .text.__sfvwrite_r
                0x00000000000247b8      0x2b0 /usr/lib/gcc/arm-none-eabi/4.9.3/../../../arm-none-eabi/lib/armv6-m/libc_nano.a(lib_a-fvwrite.o)
                0x00000000000247b8                __sfvwrite_r
 .text          0x0000000000024a68        0x0 /usr/lib/gcc/arm-none-eabi/4.9.3/../../../arm-none-eabi/lib/armv6-m/libc_nano.a(lib_a-lseekr.o)
 .text._lseek_r
                0x0000000000024a68       0x28 /usr/lib/gcc/arm-none-eabi/4.9.3/../../../arm-none-eabi/lib/armv6-m/libc_nano.a(lib_a-lseekr.o)
                0x0000000000024a68                _lseek_r
 .text          0x0000000000024a90        0x0 /usr/lib/gcc/arm-none-eabi/4.9.3/../../../arm-none-eabi/lib/armv6-m/libc_nano.a(lib_a-makebuf.o)
 .text.__smakebuf_r
                0x0000000000024a90       0xb0 /usr/lib/gcc/arm-none-eabi/4.9.3/../../../arm-none-eabi/lib/armv6-m/libc_nano.a(lib_a-makebuf.o)
                0x0000000000024a90                __smakebuf_r
 .text          0x0000000000024b40        0x0 /usr/lib/gcc/arm-none-eabi/4.9.3/../../../arm-none-eabi/lib/armv6-m/libc_nano.a(lib_a-memchr.o)
 .text.memchr   0x0000000000024b40       0x16 /usr/lib/gcc/arm-none-eabi/4.9.3/../../../arm-none-eabi/lib/armv6-m/libc_nano.a(lib_a-memchr.o)
                0x0000000000024b40                memchr
 .text          0x0000000000024b56        0x0 /usr/lib/gcc/arm-none-eabi/4.9.3/../../../arm-none-eabi/lib/armv6-m/libc_nano.a(lib_a-memmove.o)
 .text.memmove  0x0000000000024b56       0x28 /usr/lib/gcc/arm-none-eabi/4.9.3/../../../arm-none-eabi/lib/armv6-m/libc_nano.a(lib_a-memmove.o)
                0x0000000000024b56                memmove
 .text          0x0000000000024b7e        0x0 /usr/lib/gcc/arm-none-eabi/4.9.3/../../../arm-none-eabi/lib/armv6-m/libc_nano.a(lib_a-nano-freer.o)
 *fill*         0x0000000000024b7e        0x2 
 .text._free_r  0x0000000000024b80       0x8c /usr/lib/gcc/arm-none-eabi/4.9.3/../../../arm-none-eabi/lib/armv6-m/libc_nano.a(lib_a-nano-freer.o)
                0x0000000000024b80                _free_r
 .text          0x0000000000024c0c        0x0 /usr/lib/gcc/arm-none-eabi/4.9.3/../../../arm-none-eabi/lib/armv6-m/libc_nano.a(lib_a-nano-reallocr.o)
 .text._realloc_r
                0x0000000000024c0c       0x4c /usr/lib/gcc/arm-none-eabi/4.9.3/../../../arm-none-eabi/lib/armv6-m/libc_nano.a(lib_a-nano-reallocr.o)
                0x0000000000024c0c                _realloc_r
 .text          0x0000000000024c58        0x0 /usr/lib/gcc/arm-none-eabi/4.9.3/../../../arm-none-eabi/lib/armv6-m/libc_nano.a(lib_a-readr.o)
 .text._read_r  0x0000000000024c58       0x28 /usr/lib/gcc/arm-none-eabi/4.9.3/../../../arm-none-eabi/lib/armv6-m/libc_nano.a(lib_a-readr.o)
                0x0000000000024c58                _read_r
 .text          0x0000000000024c80        0x0 /usr/lib/gcc/arm-none-eabi/4.9.3/../../../arm-none-eabi/lib/armv6-m/libc_nano.a(lib_a-reent.o)
 .text.cleanup_glue
                0x0000000000024c80       0x1a /usr/lib/gcc/arm-none-eabi/4.9.3/../../../arm-none-eabi/lib/armv6-m/libc_nano.a(lib_a-reent.o)
                0x0000000000024c80                cleanup_glue
 *fill*         0x0000000000024c9a        0x2 
 .text._reclaim_reent
                0x0000000000024c9c       0xcc /usr/lib/gcc/arm-none-eabi/4.9.3/../../../arm-none-eabi/lib/armv6-m/libc_nano.a(lib_a-reent.o)
                0x0000000000024c9c                _reclaim_reent
 .text          0x0000000000024d68        0x0 /usr/lib/gcc/arm-none-eabi/4.9.3/../../../arm-none-eabi/lib/armv6-m/libc_nano.a(lib_a-fstatr.o)
 .text._fstat_r
                0x0000000000024d68       0x24 /usr/lib/gcc/arm-none-eabi/4.9.3/../../../arm-none-eabi/lib/armv6-m/libc_nano.a(lib_a-fstatr.o)
                0x0000000000024d68                _fstat_r
 .text          0x0000000000024d8c        0x0 /usr/lib/gcc/arm-none-eabi/4.9.3/../../../arm-none-eabi/lib/armv6-m/libc_nano.a(lib_a-isattyr.o)
 .text._isatty_r
                0x0000000000024d8c       0x24 /usr/lib/gcc/arm-none-eabi/4.9.3/../../../arm-none-eabi/lib/armv6-m/libc_nano.a(lib_a-isattyr.o)
                0x0000000000024d8c                _isatty_r
 .text          0x0000000000024db0        0x0 /usr/lib/gcc/arm-none-eabi/4.9.3/../../../arm-none-eabi/lib/armv6-m/libc_nano.a(lib_a-nano-msizer.o)
 .text._malloc_usable_size_r
                0x0000000000024db0       0x16 /usr/lib/gcc/arm-none-eabi/4.9.3/../../../arm-none-eabi/lib/armv6-m/libc_nano.a(lib_a-nano-msizer.o)
                0x0000000000024db0                _malloc_usable_size_r
 .text          0x0000000000024dc6        0x0 /usr/lib/gcc/arm-none-eabi/4.9.3/armv6-m/crtend.o
 .text          0x0000000000024dc6        0x0 /usr/lib/gcc/arm-none-eabi/4.9.3/armv6-m/crtn.o
 .text          0x0000000000024dc6        0x0 /usr/lib/gcc/arm-none-eabi/4.9.3/../../../arm-none-eabi/lib/armv6-m/libnosys.a(close.o)
 *fill*         0x0000000000024dc6        0x2 
 .text._close   0x0000000000024dc8       0x10 /usr/lib/gcc/arm-none-eabi/4.9.3/../../../arm-none-eabi/lib/armv6-m/libnosys.a(close.o)
                0x0000000000024dc8                _close
 .text          0x0000000000024dd8        0x0 /usr/lib/gcc/arm-none-eabi/4.9.3/../../../arm-none-eabi/lib/armv6-m/libnosys.a(fstat.o)
 .text._fstat   0x0000000000024dd8       0x10 /usr/lib/gcc/arm-none-eabi/4.9.3/../../../arm-none-eabi/lib/armv6-m/libnosys.a(fstat.o)
                0x0000000000024dd8                _fstat
 .text          0x0000000000024de8        0x0 /usr/lib/gcc/arm-none-eabi/4.9.3/../../../arm-none-eabi/lib/armv6-m/libnosys.a(isatty.o)
 .text._isatty  0x0000000000024de8       0x10 /usr/lib/gcc/arm-none-eabi/4.9.3/../../../arm-none-eabi/lib/armv6-m/libnosys.a(isatty.o)
                0x0000000000024de8                _isatty
 .text          0x0000000000024df8        0x0 /usr/lib/gcc/arm-none-eabi/4.9.3/../../../arm-none-eabi/lib/armv6-m/libnosys.a(lseek.o)
 .text._lseek   0x0000000000024df8       0x10 /usr/lib/gcc/arm-none-eabi/4.9.3/../../../arm-none-eabi/lib/armv6-m/libnosys.a(lseek.o)
                0x0000000000024df8                _lseek
 .text          0x0000000000024e08        0x0 /usr/lib/gcc/arm-none-eabi/4.9.3/../../../arm-none-eabi/lib/armv6-m/libnosys.a(read.o)
 .text._read    0x0000000000024e08       0x10 /usr/lib/gcc/arm-none-eabi/4.9.3/../../../arm-none-eabi/lib/armv6-m/libnosys.a(read.o)
                0x0000000000024e08                _read
 .text          0x0000000000024e18        0x0 /usr/lib/gcc/arm-none-eabi/4.9.3/../../../arm-none-eabi/lib/armv6-m/libnosys.a(sbrk.o)
 .text._sbrk    0x0000000000024e18       0x1c /usr/lib/gcc/arm-none-eabi/4.9.3/../../../arm-none-eabi/lib/armv6-m/libnosys.a(sbrk.o)
                0x0000000000024e18                _sbrk
 .text          0x0000000000024e34        0x0 /usr/lib/gcc/arm-none-eabi/4.9.3/../../../arm-none-eabi/lib/armv6-m/libnosys.a(write.o)
 .text._write   0x0000000000024e34       0x10 /usr/lib/gcc/arm-none-eabi/4.9.3/../../../arm-none-eabi/lib/armv6-m/libnosys.a(write.o)
                0x0000000000024e34                _write
 .text          0x0000000000024e44        0x0 /usr/lib/gcc/arm-none-eabi/4.9.3/../../../arm-none-eabi/lib/armv6-m/libnosys.a(_exit.o)
 .text._exit    0x0000000000024e44        0x4 /usr/lib/gcc/arm-none-eabi/4.9.3/../../../arm-none-eabi/lib/armv6-m/libnosys.a(_exit.o)
                0x0000000000024e44                _exit
 *(.init)
 .init          0x0000000000024e48        0x4 /usr/lib/gcc/arm-none-eabi/4.9.3/armv6-m/crti.o
                0x0000000000024e48                _init
 .init          0x0000000000024e4c        0x8 /usr/lib/gcc/arm-none-eabi/4.9.3/armv6-m/crtn.o
 *(.fini)
 .fini          0x0000000000024e54        0x4 /usr/lib/gcc/arm-none-eabi/4.9.3/armv6-m/crti.o
                0x0000000000024e54                _fini
 .fini          0x0000000000024e58        0x8 /usr/lib/gcc/arm-none-eabi/4.9.3/armv6-m/crtn.o
 *crtbegin.o(.ctors)
 *crtbegin?.o(.ctors)
 *(EXCLUDE_FILE(*crtend.o *crtend?.o) .ctors)
 *(SORT(.ctors.*))
 *(.ctors)
 *crtbegin.o(.dtors)
 *crtbegin?.o(.dtors)
 *(EXCLUDE_FILE(*crtend.o *crtend?.o) .dtors)
 *(SORT(.dtors.*))
 *(.dtors)
 *(.rodata*)
 .rodata        0x0000000000024e60       0x3c src/ble/ble.o
 .rodata        0x0000000000024e9c       0x14 src/ble/timeslot.o
 .rodata        0x0000000000024eb0       0x3c nrf51_sdk/nrf51822/Source/ble/ble_services/ble_srv_common.o
 .rodata        0x0000000000024eec       0x35 nrf51_sdk/nrf51822/Source/ble/ble_services/ble_dis.o
 *fill*         0x0000000000024f21        0x3 
 .rodata        0x0000000000024f24       0x39 nrf51_sdk/nrf51822/Source/sd_common/softdevice_handler.o
 *fill*         0x0000000000024f5d        0x3 
 .rodata        0x0000000000024f60       0x31 nrf51_sdk/nrf51822/Source/app_common/app_timer.o
 *fill*         0x0000000000024f91        0x3 
 .rodata        0x0000000000024f94       0x1c nrf51_sdk/nrf51822/Source/app_common/pstorage.o
 .rodata        0x0000000000024fb0      0x18c nrf51_sdk/nrf51822/Source/ble/device_manager/device_manager_peripheral.o
                0x0000000000024fb0                m_service_context_store
                0x0000000000024fc0                m_service_context_load
                0x0000000000024fd0                m_service_context_apply
                0x0000000000024fe0                m_context_init_len
 .rodata        0x000000000002513c       0xc4 src/main.o
 .rodata        0x0000000000025200       0x23 src/syslink.o
 *fill*         0x0000000000025223        0x1 
 .rodata        0x0000000000025224       0x14 src/pm.o
                0x0000000000025224                statesFunctions
 .rodata        0x0000000000025238       0x35 src/ds28e05.o
 *fill*         0x000000000002526d        0x3 
 .rodata        0x0000000000025270       0x80 /usr/lib/gcc/arm-none-eabi/4.9.3/armv6-m/libgcc.a(divsf3.o)
 .rodata        0x00000000000252f0       0x40 /usr/lib/gcc/arm-none-eabi/4.9.3/armv6-m/libgcc.a(mulsf3.o)
 .rodata.str1.1
                0x0000000000025330        0x2 /usr/lib/gcc/arm-none-eabi/4.9.3/../../../arm-none-eabi/lib/armv6-m/libc_nano.a(lib_a-impure.o)
 *fill*         0x0000000000025332        0x2 
 .rodata._global_impure_ptr
                0x0000000000025334        0x4 /usr/lib/gcc/arm-none-eabi/4.9.3/../../../arm-none-eabi/lib/armv6-m/libc_nano.a(lib_a-impure.o)
                0x0000000000025334                _global_impure_ptr
 .rodata.__sf_fake_stdin
                0x0000000000025338       0x20 /usr/lib/gcc/arm-none-eabi/4.9.3/../../../arm-none-eabi/lib/armv6-m/libc_nano.a(lib_a-findfp.o)
                0x0000000000025338                __sf_fake_stdin
 .rodata.__sf_fake_stdout
                0x0000000000025358       0x20 /usr/lib/gcc/arm-none-eabi/4.9.3/../../../arm-none-eabi/lib/armv6-m/libc_nano.a(lib_a-findfp.o)
                0x0000000000025358                __sf_fake_stdout
 .rodata.__sf_fake_stderr
                0x0000000000025378       0x20 /usr/lib/gcc/arm-none-eabi/4.9.3/../../../arm-none-eabi/lib/armv6-m/libc_nano.a(lib_a-findfp.o)
                0x0000000000025378                __sf_fake_stderr
 .rodata.str1.1
                0x0000000000025398       0x11 /usr/lib/gcc/arm-none-eabi/4.9.3/../../../arm-none-eabi/lib/armv6-m/libc_nano.a(lib_a-nano-vfprintf.o)
 .rodata.str1.1
                0x00000000000253a9       0x22 /usr/lib/gcc/arm-none-eabi/4.9.3/../../../arm-none-eabi/lib/armv6-m/libc_nano.a(lib_a-nano-vfprintf_i.o)
 *(.eh_frame*)
 *fill*         0x00000000000253cb        0x1 
 .eh_frame      0x00000000000253cc        0x0 /usr/lib/gcc/arm-none-eabi/4.9.3/armv6-m/crtbegin.o
 .eh_frame      0x00000000000253cc        0x4 /usr/lib/gcc/arm-none-eabi/4.9.3/armv6-m/crtend.o

.glue_7         0x00000000000253d0        0x0
 .glue_7        0x00000000000253d0        0x0 linker stubs

.glue_7t        0x00000000000253d0        0x0
 .glue_7t       0x00000000000253d0        0x0 linker stubs

.vfp11_veneer   0x00000000000253d0        0x0
 .vfp11_veneer  0x00000000000253d0        0x0 linker stubs

.v4_bx          0x00000000000253d0        0x0
 .v4_bx         0x00000000000253d0        0x0 linker stubs

.iplt           0x00000000000253d0        0x0
 .iplt          0x00000000000253d0        0x0 /usr/lib/gcc/arm-none-eabi/4.9.3/armv6-m/crtbegin.o

.ARM.extab      0x00000000000253d0        0x0
 *(.ARM.extab* .gnu.linkonce.armextab.*)
 .ARM.extab     0x00000000000253d0        0x0 /usr/lib/gcc/arm-none-eabi/4.9.3/../../../arm-none-eabi/lib/armv6-m/crt0.o
 .ARM.extab     0x00000000000253d0        0x0 gcc_startup_nrf51.o
                0x00000000000253d0                __exidx_start = .

.ARM.exidx      0x00000000000253d0        0x8
 *(.ARM.exidx* .gnu.linkonce.armexidx.*)
 .ARM.exidx     0x00000000000253d0        0x8 /usr/lib/gcc/arm-none-eabi/4.9.3/../../../arm-none-eabi/lib/armv6-m/crt0.o
 .ARM.exidx     0x00000000000253d8        0x0 gcc_startup_nrf51.o
                                          0x8 (size before relaxing)
                0x00000000000253d8                __exidx_end = .
                0x00000000000253d8                __etext = .

.rel.dyn        0x00000000000253d8        0x0
 .rel.iplt      0x00000000000253d8        0x0 /usr/lib/gcc/arm-none-eabi/4.9.3/armv6-m/crtbegin.o

.data           0x0000000020002000      0x25c load address 0x00000000000253d8
                0x0000000020002000                __data_start__ = .
 *(vtable)
 *(.data*)
 .data          0x0000000020002000        0x0 /usr/lib/gcc/arm-none-eabi/4.9.3/armv6-m/crti.o
 .data          0x0000000020002000        0x4 /usr/lib/gcc/arm-none-eabi/4.9.3/armv6-m/crtbegin.o
                0x0000000020002000                __dso_handle
 .data          0x0000000020002004        0x0 /usr/lib/gcc/arm-none-eabi/4.9.3/../../../arm-none-eabi/lib/armv6-m/crt0.o
 .data          0x0000000020002004        0x0 src/ble/ble.o
 .data          0x0000000020002004       0x89 src/ble/ble_crazyflies.o
 *fill*         0x000000002000208d        0x3 
 .data          0x0000000020002090       0x10 src/ble/timeslot.o
 .data          0x00000000200020a0        0x0 nrf51_sdk/nrf51822/Source/ble/ble_advdata.o
 .data          0x00000000200020a0        0x0 nrf51_sdk/nrf51822/Source/ble/ble_conn_params.o
 .data          0x00000000200020a0        0x0 nrf51_sdk/nrf51822/Source/ble/ble_services/ble_srv_common.o
 .data          0x00000000200020a0        0x0 nrf51_sdk/nrf51822/Source/ble/ble_services/ble_dis.o
 .data          0x00000000200020a0        0x0 nrf51_sdk/nrf51822/Source/sd_common/softdevice_handler.o
 .data          0x00000000200020a0        0x0 nrf51_sdk/nrf51822/Source/app_common/app_timer.o
 .data          0x00000000200020a0        0x0 nrf51_sdk/nrf51822/Source/app_common/pstorage.o
 .data          0x00000000200020a0        0x0 nrf51_sdk/nrf51822/Source/ble/device_manager/device_manager_peripheral.o
 .data          0x00000000200020a0        0x0 src/main.o
 .data          0x00000000200020a0        0x0 gcc_startup_nrf51.o
 .data          0x00000000200020a0        0x4 system_nrf51.o
                0x00000000200020a0                SystemCoreClock
 .data          0x00000000200020a4        0x0 src/uart.o
 .data          0x00000000200020a4        0x0 src/syslink.o
 .data          0x00000000200020a4        0x0 src/pm.o
 .data          0x00000000200020a4        0x0 src/systick.o
 .data          0x00000000200020a4        0x0 src/button.o
 .data          0x00000000200020a4        0x0 src/swd.o
 .data          0x00000000200020a4        0x0 src/ow.o
 .data          0x00000000200020a4        0x0 src/ow/owlnk.o
 .data          0x00000000200020a4        0x0 src/ow/ownet.o
 .data          0x00000000200020a4        0x0 src/ow/owtran.o
 .data          0x00000000200020a4      0x120 src/ow/crcutil.o
 .data          0x00000000200021c4        0x0 src/ds2431.o
 .data          0x00000000200021c4        0x0 src/ds28e05.o
 *fill*         0x00000000200021c4        0x4 
 .data          0x00000000200021c8       0x20 src/esb.o
 .data          0x00000000200021e8        0x0 src/memory.o
 .data          0x00000000200021e8        0x0 /usr/lib/gcc/arm-none-eabi/4.9.3/armv6-m/libgcc.a(_udivsi3.o)
 .data          0x00000000200021e8        0x0 /usr/lib/gcc/arm-none-eabi/4.9.3/armv6-m/libgcc.a(_divsi3.o)
 .data          0x00000000200021e8        0x0 /usr/lib/gcc/arm-none-eabi/4.9.3/armv6-m/libgcc.a(_dvmd_tls.o)
 .data          0x00000000200021e8        0x0 /usr/lib/gcc/arm-none-eabi/4.9.3/armv6-m/libgcc.a(divsf3.o)
 .data          0x00000000200021e8        0x0 /usr/lib/gcc/arm-none-eabi/4.9.3/armv6-m/libgcc.a(mulsf3.o)
 .data          0x00000000200021e8        0x0 /usr/lib/gcc/arm-none-eabi/4.9.3/armv6-m/libgcc.a(floatsisf.o)
 .data          0x00000000200021e8        0x0 /usr/lib/gcc/arm-none-eabi/4.9.3/armv6-m/libgcc.a(_clzsi2.o)
 .data          0x00000000200021e8        0x0 /usr/lib/gcc/arm-none-eabi/4.9.3/../../../arm-none-eabi/lib/armv6-m/libc_nano.a(lib_a-atexit.o)
 .data          0x00000000200021e8        0x0 /usr/lib/gcc/arm-none-eabi/4.9.3/../../../arm-none-eabi/lib/armv6-m/libc_nano.a(lib_a-bzero.o)
 .data          0x00000000200021e8        0x0 /usr/lib/gcc/arm-none-eabi/4.9.3/../../../arm-none-eabi/lib/armv6-m/libc_nano.a(lib_a-errno.o)
 .data          0x00000000200021e8        0x0 /usr/lib/gcc/arm-none-eabi/4.9.3/../../../arm-none-eabi/lib/armv6-m/libc_nano.a(lib_a-exit.o)
 .data          0x00000000200021e8        0x0 /usr/lib/gcc/arm-none-eabi/4.9.3/../../../arm-none-eabi/lib/armv6-m/libc_nano.a(lib_a-fini.o)
 .data          0x00000000200021e8        0x0 /usr/lib/gcc/arm-none-eabi/4.9.3/../../../arm-none-eabi/lib/armv6-m/libc_nano.a(lib_a-impure.o)
 .data.impure_data
                0x00000000200021e8       0x60 /usr/lib/gcc/arm-none-eabi/4.9.3/../../../arm-none-eabi/lib/armv6-m/libc_nano.a(lib_a-impure.o)
 .data._impure_ptr
                0x0000000020002248        0x4 /usr/lib/gcc/arm-none-eabi/4.9.3/../../../arm-none-eabi/lib/armv6-m/libc_nano.a(lib_a-impure.o)
                0x0000000020002248                _impure_ptr
 .data          0x000000002000224c        0x0 /usr/lib/gcc/arm-none-eabi/4.9.3/../../../arm-none-eabi/lib/armv6-m/libc_nano.a(lib_a-init.o)
 .data          0x000000002000224c        0x0 /usr/lib/gcc/arm-none-eabi/4.9.3/../../../arm-none-eabi/lib/armv6-m/libc_nano.a(lib_a-memcmp.o)
 .data          0x000000002000224c        0x0 /usr/lib/gcc/arm-none-eabi/4.9.3/../../../arm-none-eabi/lib/armv6-m/libc_nano.a(lib_a-memcpy.o)
 .data          0x000000002000224c        0x0 /usr/lib/gcc/arm-none-eabi/4.9.3/../../../arm-none-eabi/lib/armv6-m/libc_nano.a(lib_a-memset.o)
 .data          0x000000002000224c        0x0 /usr/lib/gcc/arm-none-eabi/4.9.3/../../../arm-none-eabi/lib/armv6-m/libc_nano.a(lib_a-printf.o)
 .data          0x000000002000224c        0x0 /usr/lib/gcc/arm-none-eabi/4.9.3/../../../arm-none-eabi/lib/armv6-m/libc_nano.a(lib_a-strlen.o)
 .data          0x000000002000224c        0x0 /usr/lib/gcc/arm-none-eabi/4.9.3/../../../arm-none-eabi/lib/armv6-m/libc_nano.a(lib_a-__atexit.o)
 .data.__atexit_dummy
                0x000000002000224c        0x4 /usr/lib/gcc/arm-none-eabi/4.9.3/../../../arm-none-eabi/lib/armv6-m/libc_nano.a(lib_a-__atexit.o)
                0x000000002000224c                __atexit_dummy
 .data          0x0000000020002250        0x0 /usr/lib/gcc/arm-none-eabi/4.9.3/../../../arm-none-eabi/lib/armv6-m/libc_nano.a(lib_a-__call_atexit.o)
 .data          0x0000000020002250        0x0 /usr/lib/gcc/arm-none-eabi/4.9.3/../../../arm-none-eabi/lib/armv6-m/libc_nano.a(lib_a-findfp.o)
 .data          0x0000000020002250        0x0 /usr/lib/gcc/arm-none-eabi/4.9.3/../../../arm-none-eabi/lib/armv6-m/libc_nano.a(lib_a-fwalk.o)
 .data          0x0000000020002250        0x0 /usr/lib/gcc/arm-none-eabi/4.9.3/../../../arm-none-eabi/lib/armv6-m/libc_nano.a(lib_a-nano-mallocr.o)
 .data          0x0000000020002250        0x0 /usr/lib/gcc/arm-none-eabi/4.9.3/../../../arm-none-eabi/lib/armv6-m/libc_nano.a(lib_a-nano-vfprintf.o)
 .data          0x0000000020002250        0x0 /usr/lib/gcc/arm-none-eabi/4.9.3/../../../arm-none-eabi/lib/armv6-m/libc_nano.a(lib_a-nano-vfprintf_i.o)
 .data          0x0000000020002250        0x0 /usr/lib/gcc/arm-none-eabi/4.9.3/../../../arm-none-eabi/lib/armv6-m/libc_nano.a(lib_a-sbrkr.o)
 .data          0x0000000020002250        0x0 /usr/lib/gcc/arm-none-eabi/4.9.3/../../../arm-none-eabi/lib/armv6-m/libc_nano.a(lib_a-stdio.o)
 .data          0x0000000020002250        0x0 /usr/lib/gcc/arm-none-eabi/4.9.3/../../../arm-none-eabi/lib/armv6-m/libc_nano.a(lib_a-wbuf.o)
 .data          0x0000000020002250        0x0 /usr/lib/gcc/arm-none-eabi/4.9.3/../../../arm-none-eabi/lib/armv6-m/libc_nano.a(lib_a-writer.o)
 .data          0x0000000020002250        0x0 /usr/lib/gcc/arm-none-eabi/4.9.3/../../../arm-none-eabi/lib/armv6-m/libc_nano.a(lib_a-wsetup.o)
 .data          0x0000000020002250        0x0 /usr/lib/gcc/arm-none-eabi/4.9.3/../../../arm-none-eabi/lib/armv6-m/libc_nano.a(lib_a-closer.o)
 .data          0x0000000020002250        0x0 /usr/lib/gcc/arm-none-eabi/4.9.3/../../../arm-none-eabi/lib/armv6-m/libc_nano.a(lib_a-fflush.o)
 .data          0x0000000020002250        0x0 /usr/lib/gcc/arm-none-eabi/4.9.3/../../../arm-none-eabi/lib/armv6-m/libc_nano.a(lib_a-fvwrite.o)
 .data          0x0000000020002250        0x0 /usr/lib/gcc/arm-none-eabi/4.9.3/../../../arm-none-eabi/lib/armv6-m/libc_nano.a(lib_a-lseekr.o)
 .data          0x0000000020002250        0x0 /usr/lib/gcc/arm-none-eabi/4.9.3/../../../arm-none-eabi/lib/armv6-m/libc_nano.a(lib_a-makebuf.o)
 .data          0x0000000020002250        0x0 /usr/lib/gcc/arm-none-eabi/4.9.3/../../../arm-none-eabi/lib/armv6-m/libc_nano.a(lib_a-memchr.o)
 .data          0x0000000020002250        0x0 /usr/lib/gcc/arm-none-eabi/4.9.3/../../../arm-none-eabi/lib/armv6-m/libc_nano.a(lib_a-memmove.o)
 .data          0x0000000020002250        0x0 /usr/lib/gcc/arm-none-eabi/4.9.3/../../../arm-none-eabi/lib/armv6-m/libc_nano.a(lib_a-nano-freer.o)
 .data          0x0000000020002250        0x0 /usr/lib/gcc/arm-none-eabi/4.9.3/../../../arm-none-eabi/lib/armv6-m/libc_nano.a(lib_a-nano-reallocr.o)
 .data          0x0000000020002250        0x0 /usr/lib/gcc/arm-none-eabi/4.9.3/../../../arm-none-eabi/lib/armv6-m/libc_nano.a(lib_a-readr.o)
 .data          0x0000000020002250        0x0 /usr/lib/gcc/arm-none-eabi/4.9.3/../../../arm-none-eabi/lib/armv6-m/libc_nano.a(lib_a-reent.o)
 .data          0x0000000020002250        0x0 /usr/lib/gcc/arm-none-eabi/4.9.3/../../../arm-none-eabi/lib/armv6-m/libc_nano.a(lib_a-fstatr.o)
 .data          0x0000000020002250        0x0 /usr/lib/gcc/arm-none-eabi/4.9.3/../../../arm-none-eabi/lib/armv6-m/libc_nano.a(lib_a-isattyr.o)
 .data          0x0000000020002250        0x0 /usr/lib/gcc/arm-none-eabi/4.9.3/../../../arm-none-eabi/lib/armv6-m/libc_nano.a(lib_a-nano-msizer.o)
 .data          0x0000000020002250        0x0 /usr/lib/gcc/arm-none-eabi/4.9.3/armv6-m/crtend.o
 .data          0x0000000020002250        0x0 /usr/lib/gcc/arm-none-eabi/4.9.3/armv6-m/crtn.o
 .data          0x0000000020002250        0x0 /usr/lib/gcc/arm-none-eabi/4.9.3/../../../arm-none-eabi/lib/armv6-m/libnosys.a(close.o)
 .data          0x0000000020002250        0x0 /usr/lib/gcc/arm-none-eabi/4.9.3/../../../arm-none-eabi/lib/armv6-m/libnosys.a(fstat.o)
 .data          0x0000000020002250        0x0 /usr/lib/gcc/arm-none-eabi/4.9.3/../../../arm-none-eabi/lib/armv6-m/libnosys.a(isatty.o)
 .data          0x0000000020002250        0x0 /usr/lib/gcc/arm-none-eabi/4.9.3/../../../arm-none-eabi/lib/armv6-m/libnosys.a(lseek.o)
 .data          0x0000000020002250        0x0 /usr/lib/gcc/arm-none-eabi/4.9.3/../../../arm-none-eabi/lib/armv6-m/libnosys.a(read.o)
 .data          0x0000000020002250        0x0 /usr/lib/gcc/arm-none-eabi/4.9.3/../../../arm-none-eabi/lib/armv6-m/libnosys.a(sbrk.o)
 .data          0x0000000020002250        0x0 /usr/lib/gcc/arm-none-eabi/4.9.3/../../../arm-none-eabi/lib/armv6-m/libnosys.a(write.o)
 .data          0x0000000020002250        0x0 /usr/lib/gcc/arm-none-eabi/4.9.3/../../../arm-none-eabi/lib/armv6-m/libnosys.a(_exit.o)
                0x0000000020002250                . = ALIGN (0x4)
                0x0000000020002250                PROVIDE (__preinit_array_start, .)
 *(.preinit_array)
                0x0000000020002250                PROVIDE (__preinit_array_end, .)
                0x0000000020002250                . = ALIGN (0x4)
                0x0000000020002250                PROVIDE (__init_array_start, .)
 *(SORT(.init_array.*))
 *(.init_array)
 .init_array    0x0000000020002250        0x4 /usr/lib/gcc/arm-none-eabi/4.9.3/armv6-m/crtbegin.o
                0x0000000020002254                PROVIDE (__init_array_end, .)
                0x0000000020002254                . = ALIGN (0x4)
                0x0000000020002254                PROVIDE (__fini_array_start, .)
 *(SORT(.fini_array.*))
 *(.fini_array)
 .fini_array    0x0000000020002254        0x4 /usr/lib/gcc/arm-none-eabi/4.9.3/armv6-m/crtbegin.o
                0x0000000020002258                PROVIDE (__fini_array_end, .)
 *(.jcr)
 .jcr           0x0000000020002258        0x0 /usr/lib/gcc/arm-none-eabi/4.9.3/armv6-m/crtbegin.o
 .jcr           0x0000000020002258        0x4 /usr/lib/gcc/arm-none-eabi/4.9.3/armv6-m/crtend.o
                0x000000002000225c                . = ALIGN (0x4)
                0x000000002000225c                __data_end__ = .

.tm_clone_table
                0x000000002000225c        0x0 load address 0x0000000000025634
 .tm_clone_table
                0x000000002000225c        0x0 /usr/lib/gcc/arm-none-eabi/4.9.3/armv6-m/crtbegin.o
 .tm_clone_table
                0x000000002000225c        0x0 /usr/lib/gcc/arm-none-eabi/4.9.3/armv6-m/crtend.o

.igot.plt       0x000000002000225c        0x0 load address 0x0000000000025634
 .igot.plt      0x000000002000225c        0x0 /usr/lib/gcc/arm-none-eabi/4.9.3/armv6-m/crtbegin.o

.bss            0x000000002000225c     0x1130 load address 0x0000000000025634
                0x000000002000225c                . = ALIGN (0x4)
                0x000000002000225c                __bss_start__ = .
 *(.bss*)
 .bss           0x000000002000225c        0x0 /usr/lib/gcc/arm-none-eabi/4.9.3/armv6-m/crti.o
 .bss           0x000000002000225c       0x1c /usr/lib/gcc/arm-none-eabi/4.9.3/armv6-m/crtbegin.o
 .bss           0x0000000020002278        0x0 /usr/lib/gcc/arm-none-eabi/4.9.3/../../../arm-none-eabi/lib/armv6-m/crt0.o
 .bss           0x0000000020002278      0x320 src/ble/ble.o
 .bss           0x0000000020002598       0x84 src/ble/ble_crazyflies.o
 .bss           0x000000002000261c        0x8 src/ble/timeslot.o
 .bss           0x0000000020002624        0x0 nrf51_sdk/nrf51822/Source/ble/ble_advdata.o
 .bss           0x0000000020002624       0x35 nrf51_sdk/nrf51822/Source/ble/ble_conn_params.o
 .bss           0x0000000020002659        0x0 nrf51_sdk/nrf51822/Source/ble/ble_services/ble_srv_common.o
 *fill*         0x0000000020002659        0x3 
 .bss           0x000000002000265c       0x4c nrf51_sdk/nrf51822/Source/ble/ble_services/ble_dis.o
 .bss           0x00000000200026a8       0x14 nrf51_sdk/nrf51822/Source/sd_common/softdevice_handler.o
 .bss           0x00000000200026bc       0x29 nrf51_sdk/nrf51822/Source/app_common/app_timer.o
 *fill*         0x00000000200026e5        0x3 
 .bss           0x00000000200026e8       0xe8 nrf51_sdk/nrf51822/Source/app_common/pstorage.o
 .bss           0x00000000200027d0      0x11f nrf51_sdk/nrf51822/Source/ble/device_manager/device_manager_peripheral.o
 *fill*         0x00000000200028ef        0x1 
 .bss           0x00000000200028f0       0xe0 src/main.o
 .bss           0x00000000200029d0        0x0 gcc_startup_nrf51.o
 .bss           0x00000000200029d0        0x0 system_nrf51.o
 .bss           0x00000000200029d0       0x98 src/uart.o
                0x0000000020002a64                error
 .bss           0x0000000020002a68       0x10 src/syslink.o
 .bss           0x0000000020002a78       0x14 src/pm.o
 .bss           0x0000000020002a8c        0x4 src/systick.o
 .bss           0x0000000020002a90       0x10 src/button.o
 .bss           0x0000000020002aa0        0x0 src/swd.o
 .bss           0x0000000020002aa0        0x0 src/ow.o
 .bss           0x0000000020002aa0        0x8 src/ow/owlnk.o
 .bss           0x0000000020002aa8       0xc0 src/ow/ownet.o
 .bss           0x0000000020002b68        0x0 src/ow/owtran.o
 .bss           0x0000000020002b68        0x0 src/ow/crcutil.o
 .bss           0x0000000020002b68        0x0 src/ds2431.o
 .bss           0x0000000020002b68        0x0 src/ds28e05.o
 .bss           0x0000000020002b68      0x600 src/esb.o
 .bss           0x0000000020003168       0x8a src/memory.o
 .bss           0x00000000200031f2        0x0 /usr/lib/gcc/arm-none-eabi/4.9.3/armv6-m/libgcc.a(_udivsi3.o)
 .bss           0x00000000200031f2        0x0 /usr/lib/gcc/arm-none-eabi/4.9.3/armv6-m/libgcc.a(_divsi3.o)
 .bss           0x00000000200031f2        0x0 /usr/lib/gcc/arm-none-eabi/4.9.3/armv6-m/libgcc.a(_dvmd_tls.o)
 .bss           0x00000000200031f2        0x0 /usr/lib/gcc/arm-none-eabi/4.9.3/armv6-m/libgcc.a(divsf3.o)
 .bss           0x00000000200031f2        0x0 /usr/lib/gcc/arm-none-eabi/4.9.3/armv6-m/libgcc.a(mulsf3.o)
 .bss           0x00000000200031f2        0x0 /usr/lib/gcc/arm-none-eabi/4.9.3/armv6-m/libgcc.a(floatsisf.o)
 .bss           0x00000000200031f2        0x0 /usr/lib/gcc/arm-none-eabi/4.9.3/armv6-m/libgcc.a(_clzsi2.o)
 .bss           0x00000000200031f2        0x0 /usr/lib/gcc/arm-none-eabi/4.9.3/../../../arm-none-eabi/lib/armv6-m/libc_nano.a(lib_a-atexit.o)
 .bss           0x00000000200031f2        0x0 /usr/lib/gcc/arm-none-eabi/4.9.3/../../../arm-none-eabi/lib/armv6-m/libc_nano.a(lib_a-bzero.o)
 .bss           0x00000000200031f2        0x0 /usr/lib/gcc/arm-none-eabi/4.9.3/../../../arm-none-eabi/lib/armv6-m/libc_nano.a(lib_a-errno.o)
 .bss           0x00000000200031f2        0x0 /usr/lib/gcc/arm-none-eabi/4.9.3/../../../arm-none-eabi/lib/armv6-m/libc_nano.a(lib_a-exit.o)
 .bss           0x00000000200031f2        0x0 /usr/lib/gcc/arm-none-eabi/4.9.3/../../../arm-none-eabi/lib/armv6-m/libc_nano.a(lib_a-fini.o)
 .bss           0x00000000200031f2        0x0 /usr/lib/gcc/arm-none-eabi/4.9.3/../../../arm-none-eabi/lib/armv6-m/libc_nano.a(lib_a-impure.o)
 .bss           0x00000000200031f2        0x0 /usr/lib/gcc/arm-none-eabi/4.9.3/../../../arm-none-eabi/lib/armv6-m/libc_nano.a(lib_a-init.o)
 .bss           0x00000000200031f2        0x0 /usr/lib/gcc/arm-none-eabi/4.9.3/../../../arm-none-eabi/lib/armv6-m/libc_nano.a(lib_a-memcmp.o)
 .bss           0x00000000200031f2        0x0 /usr/lib/gcc/arm-none-eabi/4.9.3/../../../arm-none-eabi/lib/armv6-m/libc_nano.a(lib_a-memcpy.o)
 .bss           0x00000000200031f2        0x0 /usr/lib/gcc/arm-none-eabi/4.9.3/../../../arm-none-eabi/lib/armv6-m/libc_nano.a(lib_a-memset.o)
 .bss           0x00000000200031f2        0x0 /usr/lib/gcc/arm-none-eabi/4.9.3/../../../arm-none-eabi/lib/armv6-m/libc_nano.a(lib_a-printf.o)
 .bss           0x00000000200031f2        0x0 /usr/lib/gcc/arm-none-eabi/4.9.3/../../../arm-none-eabi/lib/armv6-m/libc_nano.a(lib_a-strlen.o)
 .bss           0x00000000200031f2        0x0 /usr/lib/gcc/arm-none-eabi/4.9.3/../../../arm-none-eabi/lib/armv6-m/libc_nano.a(lib_a-__atexit.o)
 *fill*         0x00000000200031f2        0x2 
 .bss._global_atexit0
                0x00000000200031f4       0x8c /usr/lib/gcc/arm-none-eabi/4.9.3/../../../arm-none-eabi/lib/armv6-m/libc_nano.a(lib_a-__atexit.o)
 .bss           0x0000000020003280        0x0 /usr/lib/gcc/arm-none-eabi/4.9.3/../../../arm-none-eabi/lib/armv6-m/libc_nano.a(lib_a-__call_atexit.o)
 .bss._global_atexit
                0x0000000020003280        0x4 /usr/lib/gcc/arm-none-eabi/4.9.3/../../../arm-none-eabi/lib/armv6-m/libc_nano.a(lib_a-__call_atexit.o)
                0x0000000020003280                _global_atexit
 .bss           0x0000000020003284        0x0 /usr/lib/gcc/arm-none-eabi/4.9.3/../../../arm-none-eabi/lib/armv6-m/libc_nano.a(lib_a-findfp.o)
 .bss           0x0000000020003284        0x0 /usr/lib/gcc/arm-none-eabi/4.9.3/../../../arm-none-eabi/lib/armv6-m/libc_nano.a(lib_a-fwalk.o)
 .bss           0x0000000020003284        0x0 /usr/lib/gcc/arm-none-eabi/4.9.3/../../../arm-none-eabi/lib/armv6-m/libc_nano.a(lib_a-nano-mallocr.o)
 .bss.__malloc_sbrk_start
                0x0000000020003284        0x4 /usr/lib/gcc/arm-none-eabi/4.9.3/../../../arm-none-eabi/lib/armv6-m/libc_nano.a(lib_a-nano-mallocr.o)
                0x0000000020003284                __malloc_sbrk_start
 .bss.__malloc_free_list
                0x0000000020003288        0x4 /usr/lib/gcc/arm-none-eabi/4.9.3/../../../arm-none-eabi/lib/armv6-m/libc_nano.a(lib_a-nano-mallocr.o)
                0x0000000020003288                __malloc_free_list
 .bss           0x000000002000328c        0x0 /usr/lib/gcc/arm-none-eabi/4.9.3/../../../arm-none-eabi/lib/armv6-m/libc_nano.a(lib_a-nano-vfprintf.o)
 .bss           0x000000002000328c        0x0 /usr/lib/gcc/arm-none-eabi/4.9.3/../../../arm-none-eabi/lib/armv6-m/libc_nano.a(lib_a-nano-vfprintf_i.o)
 .bss           0x000000002000328c        0x0 /usr/lib/gcc/arm-none-eabi/4.9.3/../../../arm-none-eabi/lib/armv6-m/libc_nano.a(lib_a-sbrkr.o)
 .bss           0x000000002000328c        0x0 /usr/lib/gcc/arm-none-eabi/4.9.3/../../../arm-none-eabi/lib/armv6-m/libc_nano.a(lib_a-stdio.o)
 .bss           0x000000002000328c        0x0 /usr/lib/gcc/arm-none-eabi/4.9.3/../../../arm-none-eabi/lib/armv6-m/libc_nano.a(lib_a-wbuf.o)
 .bss           0x000000002000328c        0x0 /usr/lib/gcc/arm-none-eabi/4.9.3/../../../arm-none-eabi/lib/armv6-m/libc_nano.a(lib_a-writer.o)
 .bss           0x000000002000328c        0x0 /usr/lib/gcc/arm-none-eabi/4.9.3/../../../arm-none-eabi/lib/armv6-m/libc_nano.a(lib_a-wsetup.o)
 .bss           0x000000002000328c        0x0 /usr/lib/gcc/arm-none-eabi/4.9.3/../../../arm-none-eabi/lib/armv6-m/libc_nano.a(lib_a-closer.o)
 .bss           0x000000002000328c        0x0 /usr/lib/gcc/arm-none-eabi/4.9.3/../../../arm-none-eabi/lib/armv6-m/libc_nano.a(lib_a-fflush.o)
 .bss           0x000000002000328c        0x0 /usr/lib/gcc/arm-none-eabi/4.9.3/../../../arm-none-eabi/lib/armv6-m/libc_nano.a(lib_a-fvwrite.o)
 .bss           0x000000002000328c        0x0 /usr/lib/gcc/arm-none-eabi/4.9.3/../../../arm-none-eabi/lib/armv6-m/libc_nano.a(lib_a-lseekr.o)
 .bss           0x000000002000328c        0x0 /usr/lib/gcc/arm-none-eabi/4.9.3/../../../arm-none-eabi/lib/armv6-m/libc_nano.a(lib_a-makebuf.o)
 .bss           0x000000002000328c        0x0 /usr/lib/gcc/arm-none-eabi/4.9.3/../../../arm-none-eabi/lib/armv6-m/libc_nano.a(lib_a-memchr.o)
 .bss           0x000000002000328c        0x0 /usr/lib/gcc/arm-none-eabi/4.9.3/../../../arm-none-eabi/lib/armv6-m/libc_nano.a(lib_a-memmove.o)
 .bss           0x000000002000328c        0x0 /usr/lib/gcc/arm-none-eabi/4.9.3/../../../arm-none-eabi/lib/armv6-m/libc_nano.a(lib_a-nano-freer.o)
 .bss           0x000000002000328c        0x0 /usr/lib/gcc/arm-none-eabi/4.9.3/../../../arm-none-eabi/lib/armv6-m/libc_nano.a(lib_a-nano-reallocr.o)
 .bss           0x000000002000328c        0x0 /usr/lib/gcc/arm-none-eabi/4.9.3/../../../arm-none-eabi/lib/armv6-m/libc_nano.a(lib_a-readr.o)
 .bss           0x000000002000328c        0x0 /usr/lib/gcc/arm-none-eabi/4.9.3/../../../arm-none-eabi/lib/armv6-m/libc_nano.a(lib_a-reent.o)
 .bss           0x000000002000328c        0x0 /usr/lib/gcc/arm-none-eabi/4.9.3/../../../arm-none-eabi/lib/armv6-m/libc_nano.a(lib_a-fstatr.o)
 .bss           0x000000002000328c        0x0 /usr/lib/gcc/arm-none-eabi/4.9.3/../../../arm-none-eabi/lib/armv6-m/libc_nano.a(lib_a-isattyr.o)
 .bss           0x000000002000328c        0x0 /usr/lib/gcc/arm-none-eabi/4.9.3/../../../arm-none-eabi/lib/armv6-m/libc_nano.a(lib_a-nano-msizer.o)
 .bss           0x000000002000328c        0x0 /usr/lib/gcc/arm-none-eabi/4.9.3/armv6-m/crtend.o
 .bss           0x000000002000328c        0x0 /usr/lib/gcc/arm-none-eabi/4.9.3/armv6-m/crtn.o
 .bss           0x000000002000328c        0x0 /usr/lib/gcc/arm-none-eabi/4.9.3/../../../arm-none-eabi/lib/armv6-m/libnosys.a(close.o)
 .bss           0x000000002000328c        0x0 /usr/lib/gcc/arm-none-eabi/4.9.3/../../../arm-none-eabi/lib/armv6-m/libnosys.a(fstat.o)
 .bss           0x000000002000328c        0x0 /usr/lib/gcc/arm-none-eabi/4.9.3/../../../arm-none-eabi/lib/armv6-m/libnosys.a(isatty.o)
 .bss           0x000000002000328c        0x0 /usr/lib/gcc/arm-none-eabi/4.9.3/../../../arm-none-eabi/lib/armv6-m/libnosys.a(lseek.o)
 .bss           0x000000002000328c        0x0 /usr/lib/gcc/arm-none-eabi/4.9.3/../../../arm-none-eabi/lib/armv6-m/libnosys.a(read.o)
 .bss           0x000000002000328c        0x0 /usr/lib/gcc/arm-none-eabi/4.9.3/../../../arm-none-eabi/lib/armv6-m/libnosys.a(sbrk.o)
 .bss.heap_end.4079
                0x000000002000328c        0x4 /usr/lib/gcc/arm-none-eabi/4.9.3/../../../arm-none-eabi/lib/armv6-m/libnosys.a(sbrk.o)
 .bss           0x0000000020003290        0x0 /usr/lib/gcc/arm-none-eabi/4.9.3/../../../arm-none-eabi/lib/armv6-m/libnosys.a(write.o)
 .bss           0x0000000020003290        0x0 /usr/lib/gcc/arm-none-eabi/4.9.3/../../../arm-none-eabi/lib/armv6-m/libnosys.a(_exit.o)
 *(COMMON)
 COMMON         0x0000000020003290       0x47 src/swd.o
                0x0000000020003290                rx_data
                0x00000000200032b4                tx_data
 *fill*         0x00000000200032d7        0x1 
 COMMON         0x00000000200032d8       0x80 src/ow/ownet.o
                0x00000000200032d8                SerialNum
 COMMON         0x0000000020003358       0x30 src/ow/crcutil.o
                0x0000000020003358                utilcrc8
                0x0000000020003368                utilcrc16
 COMMON         0x0000000020003388        0x4 /usr/lib/gcc/arm-none-eabi/4.9.3/../../../arm-none-eabi/lib/armv6-m/libc_nano.a(lib_a-reent.o)
                0x0000000020003388                errno
                0x000000002000338c                . = ALIGN (0x4)
                0x000000002000338c                __bss_end__ = .

.heap           0x0000000020003390       0x80
                0x0000000020003390                __end__ = .
                0x0000000020003390                end = __end__
 *(.heap*)
 .heap          0x0000000020003390       0x80 gcc_startup_nrf51.o
                0x0000000020003390                __HeapBase
                0x0000000020003410                __HeapLimit = .

.stack_dummy    0x0000000020003390      0x800
 *(.stack*)
 .stack         0x0000000020003390      0x800 gcc_startup_nrf51.o
                0x0000000020004000                __StackTop = (ORIGIN (RAM) + LENGTH (RAM))
                0x0000000020003800                __StackLimit = (__StackTop - SIZEOF (.stack_dummy))
                0x0000000020004000                PROVIDE (__stack, __StackTop)
                0x0000000000000001                ASSERT ((__StackLimit >= __HeapLimit), region RAM overflowed with stack)
OUTPUT(cf2_nrf.elf elf32-littlearm)

.ARM.attributes
                0x0000000000000000       0x28
 .ARM.attributes
                0x0000000000000000       0x1e /usr/lib/gcc/arm-none-eabi/4.9.3/armv6-m/crti.o
 .ARM.attributes
                0x000000000000001e       0x2c /usr/lib/gcc/arm-none-eabi/4.9.3/armv6-m/crtbegin.o
 .ARM.attributes
                0x000000000000004a       0x1b /usr/lib/gcc/arm-none-eabi/4.9.3/../../../arm-none-eabi/lib/armv6-m/crt0.o
 .ARM.attributes
                0x0000000000000065       0x2d src/ble/ble.o
 .ARM.attributes
                0x0000000000000092       0x2d src/ble/ble_crazyflies.o
 .ARM.attributes
                0x00000000000000bf       0x2d src/ble/timeslot.o
 .ARM.attributes
                0x00000000000000ec       0x2d nrf51_sdk/nrf51822/Source/ble/ble_advdata.o
 .ARM.attributes
                0x0000000000000119       0x2d nrf51_sdk/nrf51822/Source/ble/ble_conn_params.o
 .ARM.attributes
                0x0000000000000146       0x2d nrf51_sdk/nrf51822/Source/ble/ble_services/ble_srv_common.o
 .ARM.attributes
                0x0000000000000173       0x2d nrf51_sdk/nrf51822/Source/ble/ble_services/ble_dis.o
 .ARM.attributes
                0x00000000000001a0       0x2d nrf51_sdk/nrf51822/Source/sd_common/softdevice_handler.o
 .ARM.attributes
                0x00000000000001cd       0x2d nrf51_sdk/nrf51822/Source/app_common/app_timer.o
 .ARM.attributes
                0x00000000000001fa       0x2d nrf51_sdk/nrf51822/Source/app_common/pstorage.o
 .ARM.attributes
                0x0000000000000227       0x2d nrf51_sdk/nrf51822/Source/ble/device_manager/device_manager_peripheral.o
 .ARM.attributes
                0x0000000000000254       0x2d src/main.o
 .ARM.attributes
                0x0000000000000281       0x1b gcc_startup_nrf51.o
 .ARM.attributes
                0x000000000000029c       0x2d system_nrf51.o
 .ARM.attributes
                0x00000000000002c9       0x2d src/uart.o
 .ARM.attributes
                0x00000000000002f6       0x2d src/syslink.o
 .ARM.attributes
                0x0000000000000323       0x2d src/pm.o
 .ARM.attributes
                0x0000000000000350       0x2d src/systick.o
 .ARM.attributes
                0x000000000000037d       0x2d src/button.o
 .ARM.attributes
                0x00000000000003aa       0x2d src/swd.o
 .ARM.attributes
                0x00000000000003d7       0x2d src/ow.o
 .ARM.attributes
                0x0000000000000404       0x2d src/ow/owlnk.o
 .ARM.attributes
                0x0000000000000431       0x2d src/ow/ownet.o
 .ARM.attributes
                0x000000000000045e       0x2d src/ow/owtran.o
 .ARM.attributes
                0x000000000000048b       0x2d src/ow/crcutil.o
 .ARM.attributes
                0x00000000000004b8       0x2d src/ds2431.o
 .ARM.attributes
                0x00000000000004e5       0x2d src/ds28e05.o
 .ARM.attributes
                0x0000000000000512       0x2d src/esb.o
 .ARM.attributes
                0x000000000000053f       0x2d src/memory.o
 .ARM.attributes
                0x000000000000056c       0x1e /usr/lib/gcc/arm-none-eabi/4.9.3/armv6-m/libgcc.a(_udivsi3.o)
 .ARM.attributes
                0x000000000000058a       0x1e /usr/lib/gcc/arm-none-eabi/4.9.3/armv6-m/libgcc.a(_divsi3.o)
 .ARM.attributes
                0x00000000000005a8       0x1e /usr/lib/gcc/arm-none-eabi/4.9.3/armv6-m/libgcc.a(_dvmd_tls.o)
 .ARM.attributes
                0x00000000000005c6       0x2c /usr/lib/gcc/arm-none-eabi/4.9.3/armv6-m/libgcc.a(divsf3.o)
 .ARM.attributes
                0x00000000000005f2       0x2c /usr/lib/gcc/arm-none-eabi/4.9.3/armv6-m/libgcc.a(mulsf3.o)
 .ARM.attributes
                0x000000000000061e       0x2c /usr/lib/gcc/arm-none-eabi/4.9.3/armv6-m/libgcc.a(floatsisf.o)
 .ARM.attributes
                0x000000000000064a       0x1e /usr/lib/gcc/arm-none-eabi/4.9.3/armv6-m/libgcc.a(_clzsi2.o)
 .ARM.attributes
                0x0000000000000668       0x2c /usr/lib/gcc/arm-none-eabi/4.9.3/../../../arm-none-eabi/lib/armv6-m/libc_nano.a(lib_a-atexit.o)
 .ARM.attributes
                0x0000000000000694       0x2c /usr/lib/gcc/arm-none-eabi/4.9.3/../../../arm-none-eabi/lib/armv6-m/libc_nano.a(lib_a-bzero.o)
 .ARM.attributes
                0x00000000000006c0       0x2c /usr/lib/gcc/arm-none-eabi/4.9.3/../../../arm-none-eabi/lib/armv6-m/libc_nano.a(lib_a-errno.o)
 .ARM.attributes
                0x00000000000006ec       0x2c /usr/lib/gcc/arm-none-eabi/4.9.3/../../../arm-none-eabi/lib/armv6-m/libc_nano.a(lib_a-exit.o)
 .ARM.attributes
                0x0000000000000718       0x2c /usr/lib/gcc/arm-none-eabi/4.9.3/../../../arm-none-eabi/lib/armv6-m/libc_nano.a(lib_a-fini.o)
 .ARM.attributes
                0x0000000000000744       0x2c /usr/lib/gcc/arm-none-eabi/4.9.3/../../../arm-none-eabi/lib/armv6-m/libc_nano.a(lib_a-impure.o)
 .ARM.attributes
                0x0000000000000770       0x2c /usr/lib/gcc/arm-none-eabi/4.9.3/../../../arm-none-eabi/lib/armv6-m/libc_nano.a(lib_a-init.o)
 .ARM.attributes
                0x000000000000079c       0x2c /usr/lib/gcc/arm-none-eabi/4.9.3/../../../arm-none-eabi/lib/armv6-m/libc_nano.a(lib_a-memcmp.o)
 .ARM.attributes
                0x00000000000007c8       0x2c /usr/lib/gcc/arm-none-eabi/4.9.3/../../../arm-none-eabi/lib/armv6-m/libc_nano.a(lib_a-memcpy.o)
 .ARM.attributes
                0x00000000000007f4       0x2c /usr/lib/gcc/arm-none-eabi/4.9.3/../../../arm-none-eabi/lib/armv6-m/libc_nano.a(lib_a-memset.o)
 .ARM.attributes
                0x0000000000000820       0x2c /usr/lib/gcc/arm-none-eabi/4.9.3/../../../arm-none-eabi/lib/armv6-m/libc_nano.a(lib_a-printf.o)
 .ARM.attributes
                0x000000000000084c       0x2c /usr/lib/gcc/arm-none-eabi/4.9.3/../../../arm-none-eabi/lib/armv6-m/libc_nano.a(lib_a-strlen.o)
 .ARM.attributes
                0x0000000000000878       0x2c /usr/lib/gcc/arm-none-eabi/4.9.3/../../../arm-none-eabi/lib/armv6-m/libc_nano.a(lib_a-__atexit.o)
 .ARM.attributes
                0x00000000000008a4       0x2c /usr/lib/gcc/arm-none-eabi/4.9.3/../../../arm-none-eabi/lib/armv6-m/libc_nano.a(lib_a-__call_atexit.o)
 .ARM.attributes
                0x00000000000008d0       0x2c /usr/lib/gcc/arm-none-eabi/4.9.3/../../../arm-none-eabi/lib/armv6-m/libc_nano.a(lib_a-findfp.o)
 .ARM.attributes
                0x00000000000008fc       0x2c /usr/lib/gcc/arm-none-eabi/4.9.3/../../../arm-none-eabi/lib/armv6-m/libc_nano.a(lib_a-fwalk.o)
 .ARM.attributes
                0x0000000000000928       0x2c /usr/lib/gcc/arm-none-eabi/4.9.3/../../../arm-none-eabi/lib/armv6-m/libc_nano.a(lib_a-nano-mallocr.o)
 .ARM.attributes
                0x0000000000000954       0x2c /usr/lib/gcc/arm-none-eabi/4.9.3/../../../arm-none-eabi/lib/armv6-m/libc_nano.a(lib_a-nano-vfprintf.o)
 .ARM.attributes
                0x0000000000000980       0x2c /usr/lib/gcc/arm-none-eabi/4.9.3/../../../arm-none-eabi/lib/armv6-m/libc_nano.a(lib_a-nano-vfprintf_i.o)
 .ARM.attributes
                0x00000000000009ac       0x2c /usr/lib/gcc/arm-none-eabi/4.9.3/../../../arm-none-eabi/lib/armv6-m/libc_nano.a(lib_a-sbrkr.o)
 .ARM.attributes
                0x00000000000009d8       0x2c /usr/lib/gcc/arm-none-eabi/4.9.3/../../../arm-none-eabi/lib/armv6-m/libc_nano.a(lib_a-stdio.o)
 .ARM.attributes
                0x0000000000000a04       0x2c /usr/lib/gcc/arm-none-eabi/4.9.3/../../../arm-none-eabi/lib/armv6-m/libc_nano.a(lib_a-wbuf.o)
 .ARM.attributes
                0x0000000000000a30       0x2c /usr/lib/gcc/arm-none-eabi/4.9.3/../../../arm-none-eabi/lib/armv6-m/libc_nano.a(lib_a-writer.o)
 .ARM.attributes
                0x0000000000000a5c       0x2c /usr/lib/gcc/arm-none-eabi/4.9.3/../../../arm-none-eabi/lib/armv6-m/libc_nano.a(lib_a-wsetup.o)
 .ARM.attributes
                0x0000000000000a88       0x2c /usr/lib/gcc/arm-none-eabi/4.9.3/../../../arm-none-eabi/lib/armv6-m/libc_nano.a(lib_a-closer.o)
 .ARM.attributes
                0x0000000000000ab4       0x2c /usr/lib/gcc/arm-none-eabi/4.9.3/../../../arm-none-eabi/lib/armv6-m/libc_nano.a(lib_a-fflush.o)
 .ARM.attributes
                0x0000000000000ae0       0x2c /usr/lib/gcc/arm-none-eabi/4.9.3/../../../arm-none-eabi/lib/armv6-m/libc_nano.a(lib_a-fvwrite.o)
 .ARM.attributes
                0x0000000000000b0c       0x2c /usr/lib/gcc/arm-none-eabi/4.9.3/../../../arm-none-eabi/lib/armv6-m/libc_nano.a(lib_a-lseekr.o)
 .ARM.attributes
                0x0000000000000b38       0x2c /usr/lib/gcc/arm-none-eabi/4.9.3/../../../arm-none-eabi/lib/armv6-m/libc_nano.a(lib_a-makebuf.o)
 .ARM.attributes
                0x0000000000000b64       0x2c /usr/lib/gcc/arm-none-eabi/4.9.3/../../../arm-none-eabi/lib/armv6-m/libc_nano.a(lib_a-memchr.o)
 .ARM.attributes
                0x0000000000000b90       0x2c /usr/lib/gcc/arm-none-eabi/4.9.3/../../../arm-none-eabi/lib/armv6-m/libc_nano.a(lib_a-memmove.o)
 .ARM.attributes
                0x0000000000000bbc       0x2c /usr/lib/gcc/arm-none-eabi/4.9.3/../../../arm-none-eabi/lib/armv6-m/libc_nano.a(lib_a-nano-freer.o)
 .ARM.attributes
                0x0000000000000be8       0x2c /usr/lib/gcc/arm-none-eabi/4.9.3/../../../arm-none-eabi/lib/armv6-m/libc_nano.a(lib_a-nano-reallocr.o)
 .ARM.attributes
                0x0000000000000c14       0x2c /usr/lib/gcc/arm-none-eabi/4.9.3/../../../arm-none-eabi/lib/armv6-m/libc_nano.a(lib_a-readr.o)
 .ARM.attributes
                0x0000000000000c40       0x2c /usr/lib/gcc/arm-none-eabi/4.9.3/../../../arm-none-eabi/lib/armv6-m/libc_nano.a(lib_a-reent.o)
 .ARM.attributes
                0x0000000000000c6c       0x2c /usr/lib/gcc/arm-none-eabi/4.9.3/../../../arm-none-eabi/lib/armv6-m/libc_nano.a(lib_a-fstatr.o)
 .ARM.attributes
                0x0000000000000c98       0x2c /usr/lib/gcc/arm-none-eabi/4.9.3/../../../arm-none-eabi/lib/armv6-m/libc_nano.a(lib_a-isattyr.o)
 .ARM.attributes
                0x0000000000000cc4       0x2c /usr/lib/gcc/arm-none-eabi/4.9.3/../../../arm-none-eabi/lib/armv6-m/libc_nano.a(lib_a-nano-msizer.o)
 .ARM.attributes
                0x0000000000000cf0       0x2c /usr/lib/gcc/arm-none-eabi/4.9.3/armv6-m/crtend.o
 .ARM.attributes
                0x0000000000000d1c       0x1e /usr/lib/gcc/arm-none-eabi/4.9.3/armv6-m/crtn.o
 .ARM.attributes
                0x0000000000000d3a       0x2c /usr/lib/gcc/arm-none-eabi/4.9.3/../../../arm-none-eabi/lib/armv6-m/libnosys.a(close.o)
 .ARM.attributes
                0x0000000000000d66       0x2c /usr/lib/gcc/arm-none-eabi/4.9.3/../../../arm-none-eabi/lib/armv6-m/libnosys.a(fstat.o)
 .ARM.attributes
                0x0000000000000d92       0x2c /usr/lib/gcc/arm-none-eabi/4.9.3/../../../arm-none-eabi/lib/armv6-m/libnosys.a(isatty.o)
 .ARM.attributes
                0x0000000000000dbe       0x2c /usr/lib/gcc/arm-none-eabi/4.9.3/../../../arm-none-eabi/lib/armv6-m/libnosys.a(lseek.o)
 .ARM.attributes
                0x0000000000000dea       0x2c /usr/lib/gcc/arm-none-eabi/4.9.3/../../../arm-none-eabi/lib/armv6-m/libnosys.a(read.o)
 .ARM.attributes
                0x0000000000000e16       0x2c /usr/lib/gcc/arm-none-eabi/4.9.3/../../../arm-none-eabi/lib/armv6-m/libnosys.a(sbrk.o)
 .ARM.attributes
                0x0000000000000e42       0x2c /usr/lib/gcc/arm-none-eabi/4.9.3/../../../arm-none-eabi/lib/armv6-m/libnosys.a(write.o)
 .ARM.attributes
                0x0000000000000e6e       0x2c /usr/lib/gcc/arm-none-eabi/4.9.3/../../../arm-none-eabi/lib/armv6-m/libnosys.a(_exit.o)

.comment        0x0000000000000000       0x70
 .comment       0x0000000000000000       0x38 /usr/lib/gcc/arm-none-eabi/4.9.3/armv6-m/crtbegin.o
                                         0x39 (size before relaxing)
 .comment       0x0000000000000038       0x39 src/ble/ble.o
 .comment       0x0000000000000038       0x39 src/ble/ble_crazyflies.o
 .comment       0x0000000000000038       0x39 src/ble/timeslot.o
 .comment       0x0000000000000038       0x39 nrf51_sdk/nrf51822/Source/ble/ble_advdata.o
 .comment       0x0000000000000038       0x39 nrf51_sdk/nrf51822/Source/ble/ble_conn_params.o
 .comment       0x0000000000000038       0x39 nrf51_sdk/nrf51822/Source/ble/ble_services/ble_srv_common.o
 .comment       0x0000000000000038       0x39 nrf51_sdk/nrf51822/Source/ble/ble_services/ble_dis.o
 .comment       0x0000000000000038       0x39 nrf51_sdk/nrf51822/Source/sd_common/softdevice_handler.o
 .comment       0x0000000000000038       0x39 nrf51_sdk/nrf51822/Source/app_common/app_timer.o
 .comment       0x0000000000000038       0x39 nrf51_sdk/nrf51822/Source/app_common/pstorage.o
 .comment       0x0000000000000038       0x39 nrf51_sdk/nrf51822/Source/ble/device_manager/device_manager_peripheral.o
 .comment       0x0000000000000038       0x39 src/main.o
 .comment       0x0000000000000038       0x39 system_nrf51.o
 .comment       0x0000000000000038       0x39 src/uart.o
 .comment       0x0000000000000038       0x39 src/syslink.o
 .comment       0x0000000000000038       0x39 src/pm.o
 .comment       0x0000000000000038       0x39 src/systick.o
 .comment       0x0000000000000038       0x39 src/button.o
 .comment       0x0000000000000038       0x39 src/swd.o
 .comment       0x0000000000000038       0x39 src/ow.o
 .comment       0x0000000000000038       0x39 src/ow/owlnk.o
 .comment       0x0000000000000038       0x39 src/ow/ownet.o
 .comment       0x0000000000000038       0x39 src/ow/owtran.o
 .comment       0x0000000000000038       0x39 src/ow/crcutil.o
 .comment       0x0000000000000038       0x39 src/ds2431.o
 .comment       0x0000000000000038       0x39 src/ds28e05.o
 .comment       0x0000000000000038       0x39 src/esb.o
 .comment       0x0000000000000038       0x39 src/memory.o
 .comment       0x0000000000000038       0x39 /usr/lib/gcc/arm-none-eabi/4.9.3/armv6-m/libgcc.a(divsf3.o)
 .comment       0x0000000000000038       0x39 /usr/lib/gcc/arm-none-eabi/4.9.3/armv6-m/libgcc.a(mulsf3.o)
 .comment       0x0000000000000038       0x39 /usr/lib/gcc/arm-none-eabi/4.9.3/armv6-m/libgcc.a(floatsisf.o)
 .comment       0x0000000000000038       0x38 /usr/lib/gcc/arm-none-eabi/4.9.3/../../../arm-none-eabi/lib/armv6-m/libc_nano.a(lib_a-atexit.o)
                                         0x39 (size before relaxing)
 .comment       0x0000000000000070       0x39 /usr/lib/gcc/arm-none-eabi/4.9.3/../../../arm-none-eabi/lib/armv6-m/libc_nano.a(lib_a-bzero.o)
 .comment       0x0000000000000070       0x39 /usr/lib/gcc/arm-none-eabi/4.9.3/../../../arm-none-eabi/lib/armv6-m/libc_nano.a(lib_a-errno.o)
 .comment       0x0000000000000070       0x39 /usr/lib/gcc/arm-none-eabi/4.9.3/../../../arm-none-eabi/lib/armv6-m/libc_nano.a(lib_a-exit.o)
 .comment       0x0000000000000070       0x39 /usr/lib/gcc/arm-none-eabi/4.9.3/../../../arm-none-eabi/lib/armv6-m/libc_nano.a(lib_a-fini.o)
 .comment       0x0000000000000070       0x39 /usr/lib/gcc/arm-none-eabi/4.9.3/../../../arm-none-eabi/lib/armv6-m/libc_nano.a(lib_a-impure.o)
 .comment       0x0000000000000070       0x39 /usr/lib/gcc/arm-none-eabi/4.9.3/../../../arm-none-eabi/lib/armv6-m/libc_nano.a(lib_a-init.o)
 .comment       0x0000000000000070       0x39 /usr/lib/gcc/arm-none-eabi/4.9.3/../../../arm-none-eabi/lib/armv6-m/libc_nano.a(lib_a-memcmp.o)
 .comment       0x0000000000000070       0x39 /usr/lib/gcc/arm-none-eabi/4.9.3/../../../arm-none-eabi/lib/armv6-m/libc_nano.a(lib_a-memcpy.o)
 .comment       0x0000000000000070       0x39 /usr/lib/gcc/arm-none-eabi/4.9.3/../../../arm-none-eabi/lib/armv6-m/libc_nano.a(lib_a-memset.o)
 .comment       0x0000000000000070       0x39 /usr/lib/gcc/arm-none-eabi/4.9.3/../../../arm-none-eabi/lib/armv6-m/libc_nano.a(lib_a-printf.o)
 .comment       0x0000000000000070       0x39 /usr/lib/gcc/arm-none-eabi/4.9.3/../../../arm-none-eabi/lib/armv6-m/libc_nano.a(lib_a-strlen.o)
 .comment       0x0000000000000070       0x39 /usr/lib/gcc/arm-none-eabi/4.9.3/../../../arm-none-eabi/lib/armv6-m/libc_nano.a(lib_a-__atexit.o)
 .comment       0x0000000000000070       0x39 /usr/lib/gcc/arm-none-eabi/4.9.3/../../../arm-none-eabi/lib/armv6-m/libc_nano.a(lib_a-__call_atexit.o)
 .comment       0x0000000000000070       0x39 /usr/lib/gcc/arm-none-eabi/4.9.3/../../../arm-none-eabi/lib/armv6-m/libc_nano.a(lib_a-findfp.o)
 .comment       0x0000000000000070       0x39 /usr/lib/gcc/arm-none-eabi/4.9.3/../../../arm-none-eabi/lib/armv6-m/libc_nano.a(lib_a-fwalk.o)
 .comment       0x0000000000000070       0x39 /usr/lib/gcc/arm-none-eabi/4.9.3/../../../arm-none-eabi/lib/armv6-m/libc_nano.a(lib_a-nano-mallocr.o)
 .comment       0x0000000000000070       0x39 /usr/lib/gcc/arm-none-eabi/4.9.3/../../../arm-none-eabi/lib/armv6-m/libc_nano.a(lib_a-nano-vfprintf.o)
 .comment       0x0000000000000070       0x39 /usr/lib/gcc/arm-none-eabi/4.9.3/../../../arm-none-eabi/lib/armv6-m/libc_nano.a(lib_a-nano-vfprintf_i.o)
 .comment       0x0000000000000070       0x39 /usr/lib/gcc/arm-none-eabi/4.9.3/../../../arm-none-eabi/lib/armv6-m/libc_nano.a(lib_a-sbrkr.o)
 .comment       0x0000000000000070       0x39 /usr/lib/gcc/arm-none-eabi/4.9.3/../../../arm-none-eabi/lib/armv6-m/libc_nano.a(lib_a-stdio.o)
 .comment       0x0000000000000070       0x39 /usr/lib/gcc/arm-none-eabi/4.9.3/../../../arm-none-eabi/lib/armv6-m/libc_nano.a(lib_a-wbuf.o)
 .comment       0x0000000000000070       0x39 /usr/lib/gcc/arm-none-eabi/4.9.3/../../../arm-none-eabi/lib/armv6-m/libc_nano.a(lib_a-writer.o)
 .comment       0x0000000000000070       0x39 /usr/lib/gcc/arm-none-eabi/4.9.3/../../../arm-none-eabi/lib/armv6-m/libc_nano.a(lib_a-wsetup.o)
 .comment       0x0000000000000070       0x39 /usr/lib/gcc/arm-none-eabi/4.9.3/../../../arm-none-eabi/lib/armv6-m/libc_nano.a(lib_a-closer.o)
 .comment       0x0000000000000070       0x39 /usr/lib/gcc/arm-none-eabi/4.9.3/../../../arm-none-eabi/lib/armv6-m/libc_nano.a(lib_a-fflush.o)
 .comment       0x0000000000000070       0x39 /usr/lib/gcc/arm-none-eabi/4.9.3/../../../arm-none-eabi/lib/armv6-m/libc_nano.a(lib_a-fvwrite.o)
 .comment       0x0000000000000070       0x39 /usr/lib/gcc/arm-none-eabi/4.9.3/../../../arm-none-eabi/lib/armv6-m/libc_nano.a(lib_a-lseekr.o)
 .comment       0x0000000000000070       0x39 /usr/lib/gcc/arm-none-eabi/4.9.3/../../../arm-none-eabi/lib/armv6-m/libc_nano.a(lib_a-makebuf.o)
 .comment       0x0000000000000070       0x39 /usr/lib/gcc/arm-none-eabi/4.9.3/../../../arm-none-eabi/lib/armv6-m/libc_nano.a(lib_a-memchr.o)
 .comment       0x0000000000000070       0x39 /usr/lib/gcc/arm-none-eabi/4.9.3/../../../arm-none-eabi/lib/armv6-m/libc_nano.a(lib_a-memmove.o)
 .comment       0x0000000000000070       0x39 /usr/lib/gcc/arm-none-eabi/4.9.3/../../../arm-none-eabi/lib/armv6-m/libc_nano.a(lib_a-nano-freer.o)
 .comment       0x0000000000000070       0x39 /usr/lib/gcc/arm-none-eabi/4.9.3/../../../arm-none-eabi/lib/armv6-m/libc_nano.a(lib_a-nano-reallocr.o)
 .comment       0x0000000000000070       0x39 /usr/lib/gcc/arm-none-eabi/4.9.3/../../../arm-none-eabi/lib/armv6-m/libc_nano.a(lib_a-readr.o)
 .comment       0x0000000000000070       0x39 /usr/lib/gcc/arm-none-eabi/4.9.3/../../../arm-none-eabi/lib/armv6-m/libc_nano.a(lib_a-reent.o)
 .comment       0x0000000000000070       0x39 /usr/lib/gcc/arm-none-eabi/4.9.3/../../../arm-none-eabi/lib/armv6-m/libc_nano.a(lib_a-fstatr.o)
 .comment       0x0000000000000070       0x39 /usr/lib/gcc/arm-none-eabi/4.9.3/../../../arm-none-eabi/lib/armv6-m/libc_nano.a(lib_a-isattyr.o)
 .comment       0x0000000000000070       0x39 /usr/lib/gcc/arm-none-eabi/4.9.3/../../../arm-none-eabi/lib/armv6-m/libc_nano.a(lib_a-nano-msizer.o)
 .comment       0x0000000000000070       0x39 /usr/lib/gcc/arm-none-eabi/4.9.3/armv6-m/crtend.o
 .comment       0x0000000000000070       0x39 /usr/lib/gcc/arm-none-eabi/4.9.3/../../../arm-none-eabi/lib/armv6-m/libnosys.a(close.o)
 .comment       0x0000000000000070       0x39 /usr/lib/gcc/arm-none-eabi/4.9.3/../../../arm-none-eabi/lib/armv6-m/libnosys.a(fstat.o)
 .comment       0x0000000000000070       0x39 /usr/lib/gcc/arm-none-eabi/4.9.3/../../../arm-none-eabi/lib/armv6-m/libnosys.a(isatty.o)
 .comment       0x0000000000000070       0x39 /usr/lib/gcc/arm-none-eabi/4.9.3/../../../arm-none-eabi/lib/armv6-m/libnosys.a(lseek.o)
 .comment       0x0000000000000070       0x39 /usr/lib/gcc/arm-none-eabi/4.9.3/../../../arm-none-eabi/lib/armv6-m/libnosys.a(read.o)
 .comment       0x0000000000000070       0x39 /usr/lib/gcc/arm-none-eabi/4.9.3/../../../arm-none-eabi/lib/armv6-m/libnosys.a(sbrk.o)
 .comment       0x0000000000000070       0x39 /usr/lib/gcc/arm-none-eabi/4.9.3/../../../arm-none-eabi/lib/armv6-m/libnosys.a(write.o)
 .comment       0x0000000000000070       0x39 /usr/lib/gcc/arm-none-eabi/4.9.3/../../../arm-none-eabi/lib/armv6-m/libnosys.a(_exit.o)

.debug_line     0x0000000000000000     0xb975
 .debug_line    0x0000000000000000       0x80 /usr/lib/gcc/arm-none-eabi/4.9.3/../../../arm-none-eabi/lib/armv6-m/crt0.o
 .debug_line    0x0000000000000080      0x9b0 src/ble/ble.o
 .debug_line    0x0000000000000a30      0x47f src/ble/ble_crazyflies.o
 .debug_line    0x0000000000000eaf      0x3b8 src/ble/timeslot.o
 .debug_line    0x0000000000001267      0x5b7 nrf51_sdk/nrf51822/Source/ble/ble_advdata.o
 .debug_line    0x000000000000181e      0x58a nrf51_sdk/nrf51822/Source/ble/ble_conn_params.o
 .debug_line    0x0000000000001da8      0x37e nrf51_sdk/nrf51822/Source/ble/ble_services/ble_srv_common.o
 .debug_line    0x0000000000002126      0x4ac nrf51_sdk/nrf51822/Source/ble/ble_services/ble_dis.o
 .debug_line    0x00000000000025d2      0x669 nrf51_sdk/nrf51822/Source/sd_common/softdevice_handler.o
 .debug_line    0x0000000000002c3b      0x75c nrf51_sdk/nrf51822/Source/app_common/app_timer.o
 .debug_line    0x0000000000003397      0x7f1 nrf51_sdk/nrf51822/Source/app_common/pstorage.o
 .debug_line    0x0000000000003b88      0xb29 nrf51_sdk/nrf51822/Source/ble/device_manager/device_manager_peripheral.o
 .debug_line    0x00000000000046b1      0x72a src/main.o
 .debug_line    0x0000000000004ddb      0x205 system_nrf51.o
 .debug_line    0x0000000000004fe0      0x28c src/uart.o
 .debug_line    0x000000000000526c      0x270 src/syslink.o
 .debug_line    0x00000000000054dc      0x3c2 src/pm.o
 .debug_line    0x000000000000589e      0x1d9 src/systick.o
 .debug_line    0x0000000000005a77      0x22a src/button.o
 .debug_line    0x0000000000005ca1      0x244 src/swd.o
 .debug_line    0x0000000000005ee5      0x2a1 src/ow.o
 .debug_line    0x0000000000006186      0x370 src/ow/owlnk.o
 .debug_line    0x00000000000064f6      0x33d src/ow/ownet.o
 .debug_line    0x0000000000006833      0x212 src/ow/owtran.o
 .debug_line    0x0000000000006a45      0x1e3 src/ow/crcutil.o
 .debug_line    0x0000000000006c28      0x283 src/ds2431.o
 .debug_line    0x0000000000006eab      0x2a1 src/ds28e05.o
 .debug_line    0x000000000000714c      0x58b src/esb.o
 .debug_line    0x00000000000076d7      0x28d src/memory.o
 .debug_line    0x0000000000007964       0x6c /usr/lib/gcc/arm-none-eabi/4.9.3/armv6-m/libgcc.a(_udivsi3.o)
 .debug_line    0x00000000000079d0       0x73 /usr/lib/gcc/arm-none-eabi/4.9.3/armv6-m/libgcc.a(_divsi3.o)
 .debug_line    0x0000000000007a43       0x5e /usr/lib/gcc/arm-none-eabi/4.9.3/armv6-m/libgcc.a(_dvmd_tls.o)
 .debug_line    0x0000000000007aa1      0x13f /usr/lib/gcc/arm-none-eabi/4.9.3/armv6-m/libgcc.a(divsf3.o)
 .debug_line    0x0000000000007be0      0x12c /usr/lib/gcc/arm-none-eabi/4.9.3/armv6-m/libgcc.a(mulsf3.o)
 .debug_line    0x0000000000007d0c       0xb2 /usr/lib/gcc/arm-none-eabi/4.9.3/armv6-m/libgcc.a(floatsisf.o)
 .debug_line    0x0000000000007dbe       0x72 /usr/lib/gcc/arm-none-eabi/4.9.3/armv6-m/libgcc.a(_clzsi2.o)
 .debug_line    0x0000000000007e30       0xc3 /usr/lib/gcc/arm-none-eabi/4.9.3/../../../arm-none-eabi/lib/armv6-m/libc_nano.a(lib_a-atexit.o)
 .debug_line    0x0000000000007ef3       0xeb /usr/lib/gcc/arm-none-eabi/4.9.3/../../../arm-none-eabi/lib/armv6-m/libc_nano.a(lib_a-bzero.o)
 .debug_line    0x0000000000007fde      0x10e /usr/lib/gcc/arm-none-eabi/4.9.3/../../../arm-none-eabi/lib/armv6-m/libc_nano.a(lib_a-errno.o)
 .debug_line    0x00000000000080ec      0x169 /usr/lib/gcc/arm-none-eabi/4.9.3/../../../arm-none-eabi/lib/armv6-m/libc_nano.a(lib_a-exit.o)
 .debug_line    0x0000000000008255       0x9b /usr/lib/gcc/arm-none-eabi/4.9.3/../../../arm-none-eabi/lib/armv6-m/libc_nano.a(lib_a-fini.o)
 .debug_line    0x00000000000082f0       0xf1 /usr/lib/gcc/arm-none-eabi/4.9.3/../../../arm-none-eabi/lib/armv6-m/libc_nano.a(lib_a-impure.o)
 .debug_line    0x00000000000083e1       0xb5 /usr/lib/gcc/arm-none-eabi/4.9.3/../../../arm-none-eabi/lib/armv6-m/libc_nano.a(lib_a-init.o)
 .debug_line    0x0000000000008496       0xef /usr/lib/gcc/arm-none-eabi/4.9.3/../../../arm-none-eabi/lib/armv6-m/libc_nano.a(lib_a-memcmp.o)
 .debug_line    0x0000000000008585       0xf1 /usr/lib/gcc/arm-none-eabi/4.9.3/../../../arm-none-eabi/lib/armv6-m/libc_nano.a(lib_a-memcpy.o)
 .debug_line    0x0000000000008676       0xed /usr/lib/gcc/arm-none-eabi/4.9.3/../../../arm-none-eabi/lib/armv6-m/libc_nano.a(lib_a-memset.o)
 .debug_line    0x0000000000008763      0x1a8 /usr/lib/gcc/arm-none-eabi/4.9.3/../../../arm-none-eabi/lib/armv6-m/libc_nano.a(lib_a-printf.o)
 .debug_line    0x000000000000890b       0xfa /usr/lib/gcc/arm-none-eabi/4.9.3/../../../arm-none-eabi/lib/armv6-m/libc_nano.a(lib_a-strlen.o)
 .debug_line    0x0000000000008a05      0x17e /usr/lib/gcc/arm-none-eabi/4.9.3/../../../arm-none-eabi/lib/armv6-m/libc_nano.a(lib_a-__atexit.o)
 .debug_line    0x0000000000008b83      0x172 /usr/lib/gcc/arm-none-eabi/4.9.3/../../../arm-none-eabi/lib/armv6-m/libc_nano.a(lib_a-__call_atexit.o)
 .debug_line    0x0000000000008cf5      0x2e0 /usr/lib/gcc/arm-none-eabi/4.9.3/../../../arm-none-eabi/lib/armv6-m/libc_nano.a(lib_a-findfp.o)
 .debug_line    0x0000000000008fd5      0x1bb /usr/lib/gcc/arm-none-eabi/4.9.3/../../../arm-none-eabi/lib/armv6-m/libc_nano.a(lib_a-fwalk.o)
 .debug_line    0x0000000000009190      0x19a /usr/lib/gcc/arm-none-eabi/4.9.3/../../../arm-none-eabi/lib/armv6-m/libc_nano.a(lib_a-nano-mallocr.o)
 .debug_line    0x000000000000932a      0x2ee /usr/lib/gcc/arm-none-eabi/4.9.3/../../../arm-none-eabi/lib/armv6-m/libc_nano.a(lib_a-nano-vfprintf.o)
 .debug_line    0x0000000000009618      0x2fd /usr/lib/gcc/arm-none-eabi/4.9.3/../../../arm-none-eabi/lib/armv6-m/libc_nano.a(lib_a-nano-vfprintf_i.o)
 .debug_line    0x0000000000009915      0x162 /usr/lib/gcc/arm-none-eabi/4.9.3/../../../arm-none-eabi/lib/armv6-m/libc_nano.a(lib_a-sbrkr.o)
 .debug_line    0x0000000000009a77      0x1cc /usr/lib/gcc/arm-none-eabi/4.9.3/../../../arm-none-eabi/lib/armv6-m/libc_nano.a(lib_a-stdio.o)
 .debug_line    0x0000000000009c43      0x1e9 /usr/lib/gcc/arm-none-eabi/4.9.3/../../../arm-none-eabi/lib/armv6-m/libc_nano.a(lib_a-wbuf.o)
 .debug_line    0x0000000000009e2c      0x161 /usr/lib/gcc/arm-none-eabi/4.9.3/../../../arm-none-eabi/lib/armv6-m/libc_nano.a(lib_a-writer.o)
 .debug_line    0x0000000000009f8d      0x1d6 /usr/lib/gcc/arm-none-eabi/4.9.3/../../../arm-none-eabi/lib/armv6-m/libc_nano.a(lib_a-wsetup.o)
 .debug_line    0x000000000000a163      0x163 /usr/lib/gcc/arm-none-eabi/4.9.3/../../../arm-none-eabi/lib/armv6-m/libc_nano.a(lib_a-closer.o)
 .debug_line    0x000000000000a2c6      0x253 /usr/lib/gcc/arm-none-eabi/4.9.3/../../../arm-none-eabi/lib/armv6-m/libc_nano.a(lib_a-fflush.o)
 .debug_line    0x000000000000a519      0x275 /usr/lib/gcc/arm-none-eabi/4.9.3/../../../arm-none-eabi/lib/armv6-m/libc_nano.a(lib_a-fvwrite.o)
 .debug_line    0x000000000000a78e      0x161 /usr/lib/gcc/arm-none-eabi/4.9.3/../../../arm-none-eabi/lib/armv6-m/libc_nano.a(lib_a-lseekr.o)
 .debug_line    0x000000000000a8ef      0x1b4 /usr/lib/gcc/arm-none-eabi/4.9.3/../../../arm-none-eabi/lib/armv6-m/libc_nano.a(lib_a-makebuf.o)
 .debug_line    0x000000000000aaa3       0xf1 /usr/lib/gcc/arm-none-eabi/4.9.3/../../../arm-none-eabi/lib/armv6-m/libc_nano.a(lib_a-memchr.o)
 .debug_line    0x000000000000ab94       0xf8 /usr/lib/gcc/arm-none-eabi/4.9.3/../../../arm-none-eabi/lib/armv6-m/libc_nano.a(lib_a-memmove.o)
 .debug_line    0x000000000000ac8c      0x140 /usr/lib/gcc/arm-none-eabi/4.9.3/../../../arm-none-eabi/lib/armv6-m/libc_nano.a(lib_a-nano-freer.o)
 .debug_line    0x000000000000adcc      0x170 /usr/lib/gcc/arm-none-eabi/4.9.3/../../../arm-none-eabi/lib/armv6-m/libc_nano.a(lib_a-nano-reallocr.o)
 .debug_line    0x000000000000af3c      0x160 /usr/lib/gcc/arm-none-eabi/4.9.3/../../../arm-none-eabi/lib/armv6-m/libc_nano.a(lib_a-readr.o)
 .debug_line    0x000000000000b09c      0x198 /usr/lib/gcc/arm-none-eabi/4.9.3/../../../arm-none-eabi/lib/armv6-m/libc_nano.a(lib_a-reent.o)
 .debug_line    0x000000000000b234      0x178 /usr/lib/gcc/arm-none-eabi/4.9.3/../../../arm-none-eabi/lib/armv6-m/libc_nano.a(lib_a-fstatr.o)
 .debug_line    0x000000000000b3ac      0x164 /usr/lib/gcc/arm-none-eabi/4.9.3/../../../arm-none-eabi/lib/armv6-m/libc_nano.a(lib_a-isattyr.o)
 .debug_line    0x000000000000b510      0x10f /usr/lib/gcc/arm-none-eabi/4.9.3/../../../arm-none-eabi/lib/armv6-m/libc_nano.a(lib_a-nano-msizer.o)
 .debug_line    0x000000000000b61f       0x5e /usr/lib/gcc/arm-none-eabi/4.9.3/../../../arm-none-eabi/lib/armv6-m/libnosys.a(close.o)
 .debug_line    0x000000000000b67d       0xcd /usr/lib/gcc/arm-none-eabi/4.9.3/../../../arm-none-eabi/lib/armv6-m/libnosys.a(fstat.o)
 .debug_line    0x000000000000b74a       0x5d /usr/lib/gcc/arm-none-eabi/4.9.3/../../../arm-none-eabi/lib/armv6-m/libnosys.a(isatty.o)
 .debug_line    0x000000000000b7a7       0x5e /usr/lib/gcc/arm-none-eabi/4.9.3/../../../arm-none-eabi/lib/armv6-m/libnosys.a(lseek.o)
 .debug_line    0x000000000000b805       0x5d /usr/lib/gcc/arm-none-eabi/4.9.3/../../../arm-none-eabi/lib/armv6-m/libnosys.a(read.o)
 .debug_line    0x000000000000b862       0x58 /usr/lib/gcc/arm-none-eabi/4.9.3/../../../arm-none-eabi/lib/armv6-m/libnosys.a(sbrk.o)
 .debug_line    0x000000000000b8ba       0x5e /usr/lib/gcc/arm-none-eabi/4.9.3/../../../arm-none-eabi/lib/armv6-m/libnosys.a(write.o)
 .debug_line    0x000000000000b918       0x5d /usr/lib/gcc/arm-none-eabi/4.9.3/../../../arm-none-eabi/lib/armv6-m/libnosys.a(_exit.o)

.debug_info     0x0000000000000000    0x33ed0
 .debug_info    0x0000000000000000       0xa8 /usr/lib/gcc/arm-none-eabi/4.9.3/../../../arm-none-eabi/lib/armv6-m/crt0.o
 .debug_info    0x00000000000000a8     0x4233 src/ble/ble.o
 .debug_info    0x00000000000042db     0x2955 src/ble/ble_crazyflies.o
 .debug_info    0x0000000000006c30     0x125e src/ble/timeslot.o
 .debug_info    0x0000000000007e8e     0x20da nrf51_sdk/nrf51822/Source/ble/ble_advdata.o
 .debug_info    0x0000000000009f68     0x2a6e nrf51_sdk/nrf51822/Source/ble/ble_conn_params.o
 .debug_info    0x000000000000c9d6      0xa4b nrf51_sdk/nrf51822/Source/ble/ble_services/ble_srv_common.o
 .debug_info    0x000000000000d421     0x16dc nrf51_sdk/nrf51822/Source/ble/ble_services/ble_dis.o
 .debug_info    0x000000000000eafd     0x362b nrf51_sdk/nrf51822/Source/sd_common/softdevice_handler.o
 .debug_info    0x0000000000012128     0x1f55 nrf51_sdk/nrf51822/Source/app_common/app_timer.o
 .debug_info    0x000000000001407d     0x18e7 nrf51_sdk/nrf51822/Source/app_common/pstorage.o
 .debug_info    0x0000000000015964     0x3a6d nrf51_sdk/nrf51822/Source/ble/device_manager/device_manager_peripheral.o
 .debug_info    0x00000000000193d1     0x31fa src/main.o
 .debug_info    0x000000000001c5cb      0x1e7 system_nrf51.o
 .debug_info    0x000000000001c7b2      0x94e src/uart.o
 .debug_info    0x000000000001d100      0x1f0 src/syslink.o
 .debug_info    0x000000000001d2f0     0x16ca src/pm.o
 .debug_info    0x000000000001e9ba      0x5ab src/systick.o
 .debug_info    0x000000000001ef65      0x2ad src/button.o
 .debug_info    0x000000000001f212      0x485 src/swd.o
 .debug_info    0x000000000001f697      0x6b1 src/ow.o
 .debug_info    0x000000000001fd48      0x5cb src/ow/owlnk.o
 .debug_info    0x0000000000020313      0x491 src/ow/ownet.o
 .debug_info    0x00000000000207a4      0x185 src/ow/owtran.o
 .debug_info    0x0000000000020929      0x1ed src/ow/crcutil.o
 .debug_info    0x0000000000020b16      0x30a src/ds2431.o
 .debug_info    0x0000000000020e20      0x257 src/ds28e05.o
 .debug_info    0x0000000000021077     0x21ab src/esb.o
 .debug_info    0x0000000000023222      0x308 src/memory.o
 .debug_info    0x000000000002352a       0xb9 /usr/lib/gcc/arm-none-eabi/4.9.3/armv6-m/libgcc.a(_udivsi3.o)
 .debug_info    0x00000000000235e3       0xb9 /usr/lib/gcc/arm-none-eabi/4.9.3/armv6-m/libgcc.a(_divsi3.o)
 .debug_info    0x000000000002369c       0xb9 /usr/lib/gcc/arm-none-eabi/4.9.3/armv6-m/libgcc.a(_dvmd_tls.o)
 .debug_info    0x0000000000023755      0x2b7 /usr/lib/gcc/arm-none-eabi/4.9.3/armv6-m/libgcc.a(divsf3.o)
 .debug_info    0x0000000000023a0c      0x31c /usr/lib/gcc/arm-none-eabi/4.9.3/armv6-m/libgcc.a(mulsf3.o)
 .debug_info    0x0000000000023d28      0x1c1 /usr/lib/gcc/arm-none-eabi/4.9.3/armv6-m/libgcc.a(floatsisf.o)
 .debug_info    0x0000000000023ee9       0xb9 /usr/lib/gcc/arm-none-eabi/4.9.3/armv6-m/libgcc.a(_clzsi2.o)
 .debug_info    0x0000000000023fa2      0x10a /usr/lib/gcc/arm-none-eabi/4.9.3/../../../arm-none-eabi/lib/armv6-m/libc_nano.a(lib_a-atexit.o)
 .debug_info    0x00000000000240ac       0xca /usr/lib/gcc/arm-none-eabi/4.9.3/../../../arm-none-eabi/lib/armv6-m/libc_nano.a(lib_a-bzero.o)
 .debug_info    0x0000000000024176      0x735 /usr/lib/gcc/arm-none-eabi/4.9.3/../../../arm-none-eabi/lib/armv6-m/libc_nano.a(lib_a-errno.o)
 .debug_info    0x00000000000248ab      0x7a6 /usr/lib/gcc/arm-none-eabi/4.9.3/../../../arm-none-eabi/lib/armv6-m/libc_nano.a(lib_a-exit.o)
 .debug_info    0x0000000000025051       0xeb /usr/lib/gcc/arm-none-eabi/4.9.3/../../../arm-none-eabi/lib/armv6-m/libc_nano.a(lib_a-fini.o)
 .debug_info    0x000000000002513c      0x7d3 /usr/lib/gcc/arm-none-eabi/4.9.3/../../../arm-none-eabi/lib/armv6-m/libc_nano.a(lib_a-impure.o)
 .debug_info    0x000000000002590f      0x105 /usr/lib/gcc/arm-none-eabi/4.9.3/../../../arm-none-eabi/lib/armv6-m/libc_nano.a(lib_a-init.o)
 .debug_info    0x0000000000025a14       0xef /usr/lib/gcc/arm-none-eabi/4.9.3/../../../arm-none-eabi/lib/armv6-m/libc_nano.a(lib_a-memcmp.o)
 .debug_info    0x0000000000025b03      0x102 /usr/lib/gcc/arm-none-eabi/4.9.3/../../../arm-none-eabi/lib/armv6-m/libc_nano.a(lib_a-memcpy.o)
 .debug_info    0x0000000000025c05       0xd3 /usr/lib/gcc/arm-none-eabi/4.9.3/../../../arm-none-eabi/lib/armv6-m/libc_nano.a(lib_a-memset.o)
 .debug_info    0x0000000000025cd8      0x895 /usr/lib/gcc/arm-none-eabi/4.9.3/../../../arm-none-eabi/lib/armv6-m/libc_nano.a(lib_a-printf.o)
 .debug_info    0x000000000002656d       0xcd /usr/lib/gcc/arm-none-eabi/4.9.3/../../../arm-none-eabi/lib/armv6-m/libc_nano.a(lib_a-strlen.o)
 .debug_info    0x000000000002663a      0x23b /usr/lib/gcc/arm-none-eabi/4.9.3/../../../arm-none-eabi/lib/armv6-m/libc_nano.a(lib_a-__atexit.o)
 .debug_info    0x0000000000026875      0x242 /usr/lib/gcc/arm-none-eabi/4.9.3/../../../arm-none-eabi/lib/armv6-m/libc_nano.a(lib_a-__call_atexit.o)
 .debug_info    0x0000000000026ab7      0xd5a /usr/lib/gcc/arm-none-eabi/4.9.3/../../../arm-none-eabi/lib/armv6-m/libc_nano.a(lib_a-findfp.o)
 .debug_info    0x0000000000027811      0x852 /usr/lib/gcc/arm-none-eabi/4.9.3/../../../arm-none-eabi/lib/armv6-m/libc_nano.a(lib_a-fwalk.o)
 .debug_info    0x0000000000028063      0x8f9 /usr/lib/gcc/arm-none-eabi/4.9.3/../../../arm-none-eabi/lib/armv6-m/libc_nano.a(lib_a-nano-mallocr.o)
 .debug_info    0x000000000002895c      0xe14 /usr/lib/gcc/arm-none-eabi/4.9.3/../../../arm-none-eabi/lib/armv6-m/libc_nano.a(lib_a-nano-vfprintf.o)
 .debug_info    0x0000000000029770      0xb77 /usr/lib/gcc/arm-none-eabi/4.9.3/../../../arm-none-eabi/lib/armv6-m/libc_nano.a(lib_a-nano-vfprintf_i.o)
 .debug_info    0x000000000002a2e7      0x7a0 /usr/lib/gcc/arm-none-eabi/4.9.3/../../../arm-none-eabi/lib/armv6-m/libc_nano.a(lib_a-sbrkr.o)
 .debug_info    0x000000000002aa87      0xa35 /usr/lib/gcc/arm-none-eabi/4.9.3/../../../arm-none-eabi/lib/armv6-m/libc_nano.a(lib_a-stdio.o)
 .debug_info    0x000000000002b4bc      0x916 /usr/lib/gcc/arm-none-eabi/4.9.3/../../../arm-none-eabi/lib/armv6-m/libc_nano.a(lib_a-wbuf.o)
 .debug_info    0x000000000002bdd2      0x7d5 /usr/lib/gcc/arm-none-eabi/4.9.3/../../../arm-none-eabi/lib/armv6-m/libc_nano.a(lib_a-writer.o)
 .debug_info    0x000000000002c5a7      0x881 /usr/lib/gcc/arm-none-eabi/4.9.3/../../../arm-none-eabi/lib/armv6-m/libc_nano.a(lib_a-wsetup.o)
 .debug_info    0x000000000002ce28      0x78c /usr/lib/gcc/arm-none-eabi/4.9.3/../../../arm-none-eabi/lib/armv6-m/libc_nano.a(lib_a-closer.o)
 .debug_info    0x000000000002d5b4      0xa06 /usr/lib/gcc/arm-none-eabi/4.9.3/../../../arm-none-eabi/lib/armv6-m/libc_nano.a(lib_a-fflush.o)
 .debug_info    0x000000000002dfba      0xb0e /usr/lib/gcc/arm-none-eabi/4.9.3/../../../arm-none-eabi/lib/armv6-m/libc_nano.a(lib_a-fvwrite.o)
 .debug_info    0x000000000002eac8      0x7b8 /usr/lib/gcc/arm-none-eabi/4.9.3/../../../arm-none-eabi/lib/armv6-m/libc_nano.a(lib_a-lseekr.o)
 .debug_info    0x000000000002f280      0x98c /usr/lib/gcc/arm-none-eabi/4.9.3/../../../arm-none-eabi/lib/armv6-m/libc_nano.a(lib_a-makebuf.o)
 .debug_info    0x000000000002fc0c       0xf8 /usr/lib/gcc/arm-none-eabi/4.9.3/../../../arm-none-eabi/lib/armv6-m/libc_nano.a(lib_a-memchr.o)
 .debug_info    0x000000000002fd04      0x102 /usr/lib/gcc/arm-none-eabi/4.9.3/../../../arm-none-eabi/lib/armv6-m/libc_nano.a(lib_a-memmove.o)
 .debug_info    0x000000000002fe06      0x81e /usr/lib/gcc/arm-none-eabi/4.9.3/../../../arm-none-eabi/lib/armv6-m/libc_nano.a(lib_a-nano-freer.o)
 .debug_info    0x0000000000030624      0x8b3 /usr/lib/gcc/arm-none-eabi/4.9.3/../../../arm-none-eabi/lib/armv6-m/libc_nano.a(lib_a-nano-reallocr.o)
 .debug_info    0x0000000000030ed7      0x7ce /usr/lib/gcc/arm-none-eabi/4.9.3/../../../arm-none-eabi/lib/armv6-m/libc_nano.a(lib_a-readr.o)
 .debug_info    0x00000000000316a5      0x8f8 /usr/lib/gcc/arm-none-eabi/4.9.3/../../../arm-none-eabi/lib/armv6-m/libc_nano.a(lib_a-reent.o)
 .debug_info    0x0000000000031f9d      0x90a /usr/lib/gcc/arm-none-eabi/4.9.3/../../../arm-none-eabi/lib/armv6-m/libc_nano.a(lib_a-fstatr.o)
 .debug_info    0x00000000000328a7      0x78c /usr/lib/gcc/arm-none-eabi/4.9.3/../../../arm-none-eabi/lib/armv6-m/libc_nano.a(lib_a-isattyr.o)
 .debug_info    0x0000000000033033      0x7b7 /usr/lib/gcc/arm-none-eabi/4.9.3/../../../arm-none-eabi/lib/armv6-m/libc_nano.a(lib_a-nano-msizer.o)
 .debug_info    0x00000000000337ea       0xae /usr/lib/gcc/arm-none-eabi/4.9.3/../../../arm-none-eabi/lib/armv6-m/libnosys.a(close.o)
 .debug_info    0x0000000000033898      0x22d /usr/lib/gcc/arm-none-eabi/4.9.3/../../../arm-none-eabi/lib/armv6-m/libnosys.a(fstat.o)
 .debug_info    0x0000000000033ac5       0xae /usr/lib/gcc/arm-none-eabi/4.9.3/../../../arm-none-eabi/lib/armv6-m/libnosys.a(isatty.o)
 .debug_info    0x0000000000033b73       0xca /usr/lib/gcc/arm-none-eabi/4.9.3/../../../arm-none-eabi/lib/armv6-m/libnosys.a(lseek.o)
 .debug_info    0x0000000000033c3d       0xd0 /usr/lib/gcc/arm-none-eabi/4.9.3/../../../arm-none-eabi/lib/armv6-m/libnosys.a(read.o)
 .debug_info    0x0000000000033d0d       0x9b /usr/lib/gcc/arm-none-eabi/4.9.3/../../../arm-none-eabi/lib/armv6-m/libnosys.a(sbrk.o)
 .debug_info    0x0000000000033da8       0xd0 /usr/lib/gcc/arm-none-eabi/4.9.3/../../../arm-none-eabi/lib/armv6-m/libnosys.a(write.o)
 .debug_info    0x0000000000033e78       0x58 /usr/lib/gcc/arm-none-eabi/4.9.3/../../../arm-none-eabi/lib/armv6-m/libnosys.a(_exit.o)

.debug_abbrev   0x0000000000000000     0x76e1
 .debug_abbrev  0x0000000000000000       0x14 /usr/lib/gcc/arm-none-eabi/4.9.3/../../../arm-none-eabi/lib/armv6-m/crt0.o
 .debug_abbrev  0x0000000000000014      0x37d src/ble/ble.o
 .debug_abbrev  0x0000000000000391      0x305 src/ble/ble_crazyflies.o
 .debug_abbrev  0x0000000000000696      0x1f7 src/ble/timeslot.o
 .debug_abbrev  0x000000000000088d      0x288 nrf51_sdk/nrf51822/Source/ble/ble_advdata.o
 .debug_abbrev  0x0000000000000b15      0x33d nrf51_sdk/nrf51822/Source/ble/ble_conn_params.o
 .debug_abbrev  0x0000000000000e52      0x1ae nrf51_sdk/nrf51822/Source/ble/ble_services/ble_srv_common.o
 .debug_abbrev  0x0000000000001000      0x247 nrf51_sdk/nrf51822/Source/ble/ble_services/ble_dis.o
 .debug_abbrev  0x0000000000001247      0x311 nrf51_sdk/nrf51822/Source/sd_common/softdevice_handler.o
 .debug_abbrev  0x0000000000001558      0x367 nrf51_sdk/nrf51822/Source/app_common/app_timer.o
 .debug_abbrev  0x00000000000018bf      0x278 nrf51_sdk/nrf51822/Source/app_common/pstorage.o
 .debug_abbrev  0x0000000000001b37      0x31e nrf51_sdk/nrf51822/Source/ble/device_manager/device_manager_peripheral.o
 .debug_abbrev  0x0000000000001e55      0x326 src/main.o
 .debug_abbrev  0x000000000000217b       0xf4 system_nrf51.o
 .debug_abbrev  0x000000000000226f      0x205 src/uart.o
 .debug_abbrev  0x0000000000002474       0xec src/syslink.o
 .debug_abbrev  0x0000000000002560      0x2c1 src/pm.o
 .debug_abbrev  0x0000000000002821      0x156 src/systick.o
 .debug_abbrev  0x0000000000002977      0x142 src/button.o
 .debug_abbrev  0x0000000000002ab9      0x14a src/swd.o
 .debug_abbrev  0x0000000000002c03      0x15a src/ow.o
 .debug_abbrev  0x0000000000002d5d      0x179 src/ow/owlnk.o
 .debug_abbrev  0x0000000000002ed6      0x12e src/ow/ownet.o
 .debug_abbrev  0x0000000000003004       0xa6 src/ow/owtran.o
 .debug_abbrev  0x00000000000030aa       0xc0 src/ow/crcutil.o
 .debug_abbrev  0x000000000000316a       0xb8 src/ds2431.o
 .debug_abbrev  0x0000000000003222       0xb8 src/ds28e05.o
 .debug_abbrev  0x00000000000032da      0x3b7 src/esb.o
 .debug_abbrev  0x0000000000003691      0x129 src/memory.o
 .debug_abbrev  0x00000000000037ba       0x14 /usr/lib/gcc/arm-none-eabi/4.9.3/armv6-m/libgcc.a(_udivsi3.o)
 .debug_abbrev  0x00000000000037ce       0x14 /usr/lib/gcc/arm-none-eabi/4.9.3/armv6-m/libgcc.a(_divsi3.o)
 .debug_abbrev  0x00000000000037e2       0x14 /usr/lib/gcc/arm-none-eabi/4.9.3/armv6-m/libgcc.a(_dvmd_tls.o)
 .debug_abbrev  0x00000000000037f6      0x120 /usr/lib/gcc/arm-none-eabi/4.9.3/armv6-m/libgcc.a(divsf3.o)
 .debug_abbrev  0x0000000000003916      0x117 /usr/lib/gcc/arm-none-eabi/4.9.3/armv6-m/libgcc.a(mulsf3.o)
 .debug_abbrev  0x0000000000003a2d      0x120 /usr/lib/gcc/arm-none-eabi/4.9.3/armv6-m/libgcc.a(floatsisf.o)
 .debug_abbrev  0x0000000000003b4d       0x14 /usr/lib/gcc/arm-none-eabi/4.9.3/armv6-m/libgcc.a(_clzsi2.o)
 .debug_abbrev  0x0000000000003b61       0xb5 /usr/lib/gcc/arm-none-eabi/4.9.3/../../../arm-none-eabi/lib/armv6-m/libc_nano.a(lib_a-atexit.o)
 .debug_abbrev  0x0000000000003c16       0x8c /usr/lib/gcc/arm-none-eabi/4.9.3/../../../arm-none-eabi/lib/armv6-m/libc_nano.a(lib_a-bzero.o)
 .debug_abbrev  0x0000000000003ca2      0x134 /usr/lib/gcc/arm-none-eabi/4.9.3/../../../arm-none-eabi/lib/armv6-m/libc_nano.a(lib_a-errno.o)
 .debug_abbrev  0x0000000000003dd6      0x18b /usr/lib/gcc/arm-none-eabi/4.9.3/../../../arm-none-eabi/lib/armv6-m/libc_nano.a(lib_a-exit.o)
 .debug_abbrev  0x0000000000003f61       0xb8 /usr/lib/gcc/arm-none-eabi/4.9.3/../../../arm-none-eabi/lib/armv6-m/libc_nano.a(lib_a-fini.o)
 .debug_abbrev  0x0000000000004019      0x136 /usr/lib/gcc/arm-none-eabi/4.9.3/../../../arm-none-eabi/lib/armv6-m/libc_nano.a(lib_a-impure.o)
 .debug_abbrev  0x000000000000414f       0xba /usr/lib/gcc/arm-none-eabi/4.9.3/../../../arm-none-eabi/lib/armv6-m/libc_nano.a(lib_a-init.o)
 .debug_abbrev  0x0000000000004209       0x8e /usr/lib/gcc/arm-none-eabi/4.9.3/../../../arm-none-eabi/lib/armv6-m/libc_nano.a(lib_a-memcmp.o)
 .debug_abbrev  0x0000000000004297       0xa4 /usr/lib/gcc/arm-none-eabi/4.9.3/../../../arm-none-eabi/lib/armv6-m/libc_nano.a(lib_a-memcpy.o)
 .debug_abbrev  0x000000000000433b       0x8e /usr/lib/gcc/arm-none-eabi/4.9.3/../../../arm-none-eabi/lib/armv6-m/libc_nano.a(lib_a-memset.o)
 .debug_abbrev  0x00000000000043c9      0x1ec /usr/lib/gcc/arm-none-eabi/4.9.3/../../../arm-none-eabi/lib/armv6-m/libc_nano.a(lib_a-printf.o)
 .debug_abbrev  0x00000000000045b5       0x8c /usr/lib/gcc/arm-none-eabi/4.9.3/../../../arm-none-eabi/lib/armv6-m/libc_nano.a(lib_a-strlen.o)
 .debug_abbrev  0x0000000000004641      0x180 /usr/lib/gcc/arm-none-eabi/4.9.3/../../../arm-none-eabi/lib/armv6-m/libc_nano.a(lib_a-__atexit.o)
 .debug_abbrev  0x00000000000047c1      0x16d /usr/lib/gcc/arm-none-eabi/4.9.3/../../../arm-none-eabi/lib/armv6-m/libc_nano.a(lib_a-__call_atexit.o)
 .debug_abbrev  0x000000000000492e      0x2ef /usr/lib/gcc/arm-none-eabi/4.9.3/../../../arm-none-eabi/lib/armv6-m/libc_nano.a(lib_a-findfp.o)
 .debug_abbrev  0x0000000000004c1d      0x16a /usr/lib/gcc/arm-none-eabi/4.9.3/../../../arm-none-eabi/lib/armv6-m/libc_nano.a(lib_a-fwalk.o)
 .debug_abbrev  0x0000000000004d87      0x248 /usr/lib/gcc/arm-none-eabi/4.9.3/../../../arm-none-eabi/lib/armv6-m/libc_nano.a(lib_a-nano-mallocr.o)
 .debug_abbrev  0x0000000000004fcf      0x27c /usr/lib/gcc/arm-none-eabi/4.9.3/../../../arm-none-eabi/lib/armv6-m/libc_nano.a(lib_a-nano-vfprintf.o)
 .debug_abbrev  0x000000000000524b      0x21a /usr/lib/gcc/arm-none-eabi/4.9.3/../../../arm-none-eabi/lib/armv6-m/libc_nano.a(lib_a-nano-vfprintf_i.o)
 .debug_abbrev  0x0000000000005465      0x1a2 /usr/lib/gcc/arm-none-eabi/4.9.3/../../../arm-none-eabi/lib/armv6-m/libc_nano.a(lib_a-sbrkr.o)
 .debug_abbrev  0x0000000000005607      0x1d0 /usr/lib/gcc/arm-none-eabi/4.9.3/../../../arm-none-eabi/lib/armv6-m/libc_nano.a(lib_a-stdio.o)
 .debug_abbrev  0x00000000000057d7      0x1e9 /usr/lib/gcc/arm-none-eabi/4.9.3/../../../arm-none-eabi/lib/armv6-m/libc_nano.a(lib_a-wbuf.o)
 .debug_abbrev  0x00000000000059c0      0x199 /usr/lib/gcc/arm-none-eabi/4.9.3/../../../arm-none-eabi/lib/armv6-m/libc_nano.a(lib_a-writer.o)
 .debug_abbrev  0x0000000000005b59      0x1a5 /usr/lib/gcc/arm-none-eabi/4.9.3/../../../arm-none-eabi/lib/armv6-m/libc_nano.a(lib_a-wsetup.o)
 .debug_abbrev  0x0000000000005cfe      0x194 /usr/lib/gcc/arm-none-eabi/4.9.3/../../../arm-none-eabi/lib/armv6-m/libc_nano.a(lib_a-closer.o)
 .debug_abbrev  0x0000000000005e92      0x23a /usr/lib/gcc/arm-none-eabi/4.9.3/../../../arm-none-eabi/lib/armv6-m/libc_nano.a(lib_a-fflush.o)
 .debug_abbrev  0x00000000000060cc      0x1f1 /usr/lib/gcc/arm-none-eabi/4.9.3/../../../arm-none-eabi/lib/armv6-m/libc_nano.a(lib_a-fvwrite.o)
 .debug_abbrev  0x00000000000062bd      0x1a3 /usr/lib/gcc/arm-none-eabi/4.9.3/../../../arm-none-eabi/lib/armv6-m/libc_nano.a(lib_a-lseekr.o)
 .debug_abbrev  0x0000000000006460      0x1ab /usr/lib/gcc/arm-none-eabi/4.9.3/../../../arm-none-eabi/lib/armv6-m/libc_nano.a(lib_a-makebuf.o)
 .debug_abbrev  0x000000000000660b       0xab /usr/lib/gcc/arm-none-eabi/4.9.3/../../../arm-none-eabi/lib/armv6-m/libc_nano.a(lib_a-memchr.o)
 .debug_abbrev  0x00000000000066b6       0x9c /usr/lib/gcc/arm-none-eabi/4.9.3/../../../arm-none-eabi/lib/armv6-m/libc_nano.a(lib_a-memmove.o)
 .debug_abbrev  0x0000000000006752      0x1b8 /usr/lib/gcc/arm-none-eabi/4.9.3/../../../arm-none-eabi/lib/armv6-m/libc_nano.a(lib_a-nano-freer.o)
 .debug_abbrev  0x000000000000690a      0x1bb /usr/lib/gcc/arm-none-eabi/4.9.3/../../../arm-none-eabi/lib/armv6-m/libc_nano.a(lib_a-nano-reallocr.o)
 .debug_abbrev  0x0000000000006ac5      0x194 /usr/lib/gcc/arm-none-eabi/4.9.3/../../../arm-none-eabi/lib/armv6-m/libc_nano.a(lib_a-readr.o)
 .debug_abbrev  0x0000000000006c59      0x1e4 /usr/lib/gcc/arm-none-eabi/4.9.3/../../../arm-none-eabi/lib/armv6-m/libc_nano.a(lib_a-reent.o)
 .debug_abbrev  0x0000000000006e3d      0x1a3 /usr/lib/gcc/arm-none-eabi/4.9.3/../../../arm-none-eabi/lib/armv6-m/libc_nano.a(lib_a-fstatr.o)
 .debug_abbrev  0x0000000000006fe0      0x194 /usr/lib/gcc/arm-none-eabi/4.9.3/../../../arm-none-eabi/lib/armv6-m/libc_nano.a(lib_a-isattyr.o)
 .debug_abbrev  0x0000000000007174      0x161 /usr/lib/gcc/arm-none-eabi/4.9.3/../../../arm-none-eabi/lib/armv6-m/libc_nano.a(lib_a-nano-msizer.o)
 .debug_abbrev  0x00000000000072d5       0x66 /usr/lib/gcc/arm-none-eabi/4.9.3/../../../arm-none-eabi/lib/armv6-m/libnosys.a(close.o)
 .debug_abbrev  0x000000000000733b       0xbb /usr/lib/gcc/arm-none-eabi/4.9.3/../../../arm-none-eabi/lib/armv6-m/libnosys.a(fstat.o)
 .debug_abbrev  0x00000000000073f6       0x66 /usr/lib/gcc/arm-none-eabi/4.9.3/../../../arm-none-eabi/lib/armv6-m/libnosys.a(isatty.o)
 .debug_abbrev  0x000000000000745c       0x84 /usr/lib/gcc/arm-none-eabi/4.9.3/../../../arm-none-eabi/lib/armv6-m/libnosys.a(lseek.o)
 .debug_abbrev  0x00000000000074e0       0x8d /usr/lib/gcc/arm-none-eabi/4.9.3/../../../arm-none-eabi/lib/armv6-m/libnosys.a(read.o)
 .debug_abbrev  0x000000000000756d       0x92 /usr/lib/gcc/arm-none-eabi/4.9.3/../../../arm-none-eabi/lib/armv6-m/libnosys.a(sbrk.o)
 .debug_abbrev  0x00000000000075ff       0x8d /usr/lib/gcc/arm-none-eabi/4.9.3/../../../arm-none-eabi/lib/armv6-m/libnosys.a(write.o)
 .debug_abbrev  0x000000000000768c       0x55 /usr/lib/gcc/arm-none-eabi/4.9.3/../../../arm-none-eabi/lib/armv6-m/libnosys.a(_exit.o)

.debug_aranges  0x0000000000000000      0xb18
 .debug_aranges
                0x0000000000000000       0x20 /usr/lib/gcc/arm-none-eabi/4.9.3/../../../arm-none-eabi/lib/armv6-m/crt0.o
 .debug_aranges
                0x0000000000000020       0x20 src/ble/ble.o
 .debug_aranges
                0x0000000000000040       0x20 src/ble/ble_crazyflies.o
 .debug_aranges
                0x0000000000000060       0x20 src/ble/timeslot.o
 .debug_aranges
                0x0000000000000080       0x20 nrf51_sdk/nrf51822/Source/ble/ble_advdata.o
 .debug_aranges
                0x00000000000000a0       0x20 nrf51_sdk/nrf51822/Source/ble/ble_conn_params.o
 .debug_aranges
                0x00000000000000c0       0x20 nrf51_sdk/nrf51822/Source/ble/ble_services/ble_srv_common.o
 .debug_aranges
                0x00000000000000e0       0x20 nrf51_sdk/nrf51822/Source/ble/ble_services/ble_dis.o
 .debug_aranges
                0x0000000000000100       0x20 nrf51_sdk/nrf51822/Source/sd_common/softdevice_handler.o
 .debug_aranges
                0x0000000000000120       0x20 nrf51_sdk/nrf51822/Source/app_common/app_timer.o
 .debug_aranges
                0x0000000000000140       0x20 nrf51_sdk/nrf51822/Source/app_common/pstorage.o
 .debug_aranges
                0x0000000000000160       0x20 nrf51_sdk/nrf51822/Source/ble/device_manager/device_manager_peripheral.o
 .debug_aranges
                0x0000000000000180       0x20 src/main.o
 .debug_aranges
                0x00000000000001a0       0x20 system_nrf51.o
 .debug_aranges
                0x00000000000001c0       0x20 src/uart.o
 .debug_aranges
                0x00000000000001e0       0x20 src/syslink.o
 .debug_aranges
                0x0000000000000200       0x20 src/pm.o
 .debug_aranges
                0x0000000000000220       0x20 src/systick.o
 .debug_aranges
                0x0000000000000240       0x20 src/button.o
 .debug_aranges
                0x0000000000000260       0x20 src/swd.o
 .debug_aranges
                0x0000000000000280       0x20 src/ow.o
 .debug_aranges
                0x00000000000002a0       0x20 src/ow/owlnk.o
 .debug_aranges
                0x00000000000002c0       0x20 src/ow/ownet.o
 .debug_aranges
                0x00000000000002e0       0x20 src/ow/owtran.o
 .debug_aranges
                0x0000000000000300       0x20 src/ow/crcutil.o
 .debug_aranges
                0x0000000000000320       0x20 src/ds2431.o
 .debug_aranges
                0x0000000000000340       0x20 src/ds28e05.o
 .debug_aranges
                0x0000000000000360       0x20 src/esb.o
 .debug_aranges
                0x0000000000000380       0x20 src/memory.o
 .debug_aranges
                0x00000000000003a0       0x20 /usr/lib/gcc/arm-none-eabi/4.9.3/armv6-m/libgcc.a(_udivsi3.o)
 .debug_aranges
                0x00000000000003c0       0x20 /usr/lib/gcc/arm-none-eabi/4.9.3/armv6-m/libgcc.a(_divsi3.o)
 .debug_aranges
                0x00000000000003e0       0x20 /usr/lib/gcc/arm-none-eabi/4.9.3/armv6-m/libgcc.a(_dvmd_tls.o)
 .debug_aranges
                0x0000000000000400       0x20 /usr/lib/gcc/arm-none-eabi/4.9.3/armv6-m/libgcc.a(divsf3.o)
 .debug_aranges
                0x0000000000000420       0x20 /usr/lib/gcc/arm-none-eabi/4.9.3/armv6-m/libgcc.a(mulsf3.o)
 .debug_aranges
                0x0000000000000440       0x20 /usr/lib/gcc/arm-none-eabi/4.9.3/armv6-m/libgcc.a(floatsisf.o)
 .debug_aranges
                0x0000000000000460       0x20 /usr/lib/gcc/arm-none-eabi/4.9.3/armv6-m/libgcc.a(_clzsi2.o)
 .debug_aranges
                0x0000000000000480       0x20 /usr/lib/gcc/arm-none-eabi/4.9.3/../../../arm-none-eabi/lib/armv6-m/libc_nano.a(lib_a-atexit.o)
 .debug_aranges
                0x00000000000004a0       0x20 /usr/lib/gcc/arm-none-eabi/4.9.3/../../../arm-none-eabi/lib/armv6-m/libc_nano.a(lib_a-bzero.o)
 .debug_aranges
                0x00000000000004c0       0x20 /usr/lib/gcc/arm-none-eabi/4.9.3/../../../arm-none-eabi/lib/armv6-m/libc_nano.a(lib_a-errno.o)
 .debug_aranges
                0x00000000000004e0       0x20 /usr/lib/gcc/arm-none-eabi/4.9.3/../../../arm-none-eabi/lib/armv6-m/libc_nano.a(lib_a-exit.o)
 .debug_aranges
                0x0000000000000500       0x20 /usr/lib/gcc/arm-none-eabi/4.9.3/../../../arm-none-eabi/lib/armv6-m/libc_nano.a(lib_a-fini.o)
 .debug_aranges
                0x0000000000000520       0x18 /usr/lib/gcc/arm-none-eabi/4.9.3/../../../arm-none-eabi/lib/armv6-m/libc_nano.a(lib_a-impure.o)
 .debug_aranges
                0x0000000000000538       0x20 /usr/lib/gcc/arm-none-eabi/4.9.3/../../../arm-none-eabi/lib/armv6-m/libc_nano.a(lib_a-init.o)
 .debug_aranges
                0x0000000000000558       0x20 /usr/lib/gcc/arm-none-eabi/4.9.3/../../../arm-none-eabi/lib/armv6-m/libc_nano.a(lib_a-memcmp.o)
 .debug_aranges
                0x0000000000000578       0x20 /usr/lib/gcc/arm-none-eabi/4.9.3/../../../arm-none-eabi/lib/armv6-m/libc_nano.a(lib_a-memcpy.o)
 .debug_aranges
                0x0000000000000598       0x20 /usr/lib/gcc/arm-none-eabi/4.9.3/../../../arm-none-eabi/lib/armv6-m/libc_nano.a(lib_a-memset.o)
 .debug_aranges
                0x00000000000005b8       0x28 /usr/lib/gcc/arm-none-eabi/4.9.3/../../../arm-none-eabi/lib/armv6-m/libc_nano.a(lib_a-printf.o)
 .debug_aranges
                0x00000000000005e0       0x20 /usr/lib/gcc/arm-none-eabi/4.9.3/../../../arm-none-eabi/lib/armv6-m/libc_nano.a(lib_a-strlen.o)
 .debug_aranges
                0x0000000000000600       0x20 /usr/lib/gcc/arm-none-eabi/4.9.3/../../../arm-none-eabi/lib/armv6-m/libc_nano.a(lib_a-__atexit.o)
 .debug_aranges
                0x0000000000000620       0x20 /usr/lib/gcc/arm-none-eabi/4.9.3/../../../arm-none-eabi/lib/armv6-m/libc_nano.a(lib_a-__call_atexit.o)
 .debug_aranges
                0x0000000000000640       0x88 /usr/lib/gcc/arm-none-eabi/4.9.3/../../../arm-none-eabi/lib/armv6-m/libc_nano.a(lib_a-findfp.o)
 .debug_aranges
                0x00000000000006c8       0x28 /usr/lib/gcc/arm-none-eabi/4.9.3/../../../arm-none-eabi/lib/armv6-m/libc_nano.a(lib_a-fwalk.o)
 .debug_aranges
                0x00000000000006f0       0x20 /usr/lib/gcc/arm-none-eabi/4.9.3/../../../arm-none-eabi/lib/armv6-m/libc_nano.a(lib_a-nano-mallocr.o)
 .debug_aranges
                0x0000000000000710       0x40 /usr/lib/gcc/arm-none-eabi/4.9.3/../../../arm-none-eabi/lib/armv6-m/libc_nano.a(lib_a-nano-vfprintf.o)
 .debug_aranges
                0x0000000000000750       0x28 /usr/lib/gcc/arm-none-eabi/4.9.3/../../../arm-none-eabi/lib/armv6-m/libc_nano.a(lib_a-nano-vfprintf_i.o)
 .debug_aranges
                0x0000000000000778       0x20 /usr/lib/gcc/arm-none-eabi/4.9.3/../../../arm-none-eabi/lib/armv6-m/libc_nano.a(lib_a-sbrkr.o)
 .debug_aranges
                0x0000000000000798       0x40 /usr/lib/gcc/arm-none-eabi/4.9.3/../../../arm-none-eabi/lib/armv6-m/libc_nano.a(lib_a-stdio.o)
 .debug_aranges
                0x00000000000007d8       0x28 /usr/lib/gcc/arm-none-eabi/4.9.3/../../../arm-none-eabi/lib/armv6-m/libc_nano.a(lib_a-wbuf.o)
 .debug_aranges
                0x0000000000000800       0x20 /usr/lib/gcc/arm-none-eabi/4.9.3/../../../arm-none-eabi/lib/armv6-m/libc_nano.a(lib_a-writer.o)
 .debug_aranges
                0x0000000000000820       0x20 /usr/lib/gcc/arm-none-eabi/4.9.3/../../../arm-none-eabi/lib/armv6-m/libc_nano.a(lib_a-wsetup.o)
 .debug_aranges
                0x0000000000000840       0x20 /usr/lib/gcc/arm-none-eabi/4.9.3/../../../arm-none-eabi/lib/armv6-m/libc_nano.a(lib_a-closer.o)
 .debug_aranges
                0x0000000000000860       0x30 /usr/lib/gcc/arm-none-eabi/4.9.3/../../../arm-none-eabi/lib/armv6-m/libc_nano.a(lib_a-fflush.o)
 .debug_aranges
                0x0000000000000890       0x20 /usr/lib/gcc/arm-none-eabi/4.9.3/../../../arm-none-eabi/lib/armv6-m/libc_nano.a(lib_a-fvwrite.o)
 .debug_aranges
                0x00000000000008b0       0x20 /usr/lib/gcc/arm-none-eabi/4.9.3/../../../arm-none-eabi/lib/armv6-m/libc_nano.a(lib_a-lseekr.o)
 .debug_aranges
                0x00000000000008d0       0x20 /usr/lib/gcc/arm-none-eabi/4.9.3/../../../arm-none-eabi/lib/armv6-m/libc_nano.a(lib_a-makebuf.o)
 .debug_aranges
                0x00000000000008f0       0x20 /usr/lib/gcc/arm-none-eabi/4.9.3/../../../arm-none-eabi/lib/armv6-m/libc_nano.a(lib_a-memchr.o)
 .debug_aranges
                0x0000000000000910       0x20 /usr/lib/gcc/arm-none-eabi/4.9.3/../../../arm-none-eabi/lib/armv6-m/libc_nano.a(lib_a-memmove.o)
 .debug_aranges
                0x0000000000000930       0x20 /usr/lib/gcc/arm-none-eabi/4.9.3/../../../arm-none-eabi/lib/armv6-m/libc_nano.a(lib_a-nano-freer.o)
 .debug_aranges
                0x0000000000000950       0x20 /usr/lib/gcc/arm-none-eabi/4.9.3/../../../arm-none-eabi/lib/armv6-m/libc_nano.a(lib_a-nano-reallocr.o)
 .debug_aranges
                0x0000000000000970       0x20 /usr/lib/gcc/arm-none-eabi/4.9.3/../../../arm-none-eabi/lib/armv6-m/libc_nano.a(lib_a-readr.o)
 .debug_aranges
                0x0000000000000990       0x28 /usr/lib/gcc/arm-none-eabi/4.9.3/../../../arm-none-eabi/lib/armv6-m/libc_nano.a(lib_a-reent.o)
 .debug_aranges
                0x00000000000009b8       0x20 /usr/lib/gcc/arm-none-eabi/4.9.3/../../../arm-none-eabi/lib/armv6-m/libc_nano.a(lib_a-fstatr.o)
 .debug_aranges
                0x00000000000009d8       0x20 /usr/lib/gcc/arm-none-eabi/4.9.3/../../../arm-none-eabi/lib/armv6-m/libc_nano.a(lib_a-isattyr.o)
 .debug_aranges
                0x00000000000009f8       0x20 /usr/lib/gcc/arm-none-eabi/4.9.3/../../../arm-none-eabi/lib/armv6-m/libc_nano.a(lib_a-nano-msizer.o)
 .debug_aranges
                0x0000000000000a18       0x20 /usr/lib/gcc/arm-none-eabi/4.9.3/../../../arm-none-eabi/lib/armv6-m/libnosys.a(close.o)
 .debug_aranges
                0x0000000000000a38       0x20 /usr/lib/gcc/arm-none-eabi/4.9.3/../../../arm-none-eabi/lib/armv6-m/libnosys.a(fstat.o)
 .debug_aranges
                0x0000000000000a58       0x20 /usr/lib/gcc/arm-none-eabi/4.9.3/../../../arm-none-eabi/lib/armv6-m/libnosys.a(isatty.o)
 .debug_aranges
                0x0000000000000a78       0x20 /usr/lib/gcc/arm-none-eabi/4.9.3/../../../arm-none-eabi/lib/armv6-m/libnosys.a(lseek.o)
 .debug_aranges
                0x0000000000000a98       0x20 /usr/lib/gcc/arm-none-eabi/4.9.3/../../../arm-none-eabi/lib/armv6-m/libnosys.a(read.o)
 .debug_aranges
                0x0000000000000ab8       0x20 /usr/lib/gcc/arm-none-eabi/4.9.3/../../../arm-none-eabi/lib/armv6-m/libnosys.a(sbrk.o)
 .debug_aranges
                0x0000000000000ad8       0x20 /usr/lib/gcc/arm-none-eabi/4.9.3/../../../arm-none-eabi/lib/armv6-m/libnosys.a(write.o)
 .debug_aranges
                0x0000000000000af8       0x20 /usr/lib/gcc/arm-none-eabi/4.9.3/../../../arm-none-eabi/lib/armv6-m/libnosys.a(_exit.o)

.debug_macro    0x0000000000000000     0xfc27
 .debug_macro   0x0000000000000000      0x479 src/ble/ble.o
 .debug_macro   0x0000000000000479      0x850 src/ble/ble.o
 .debug_macro   0x0000000000000cc9       0x22 src/ble/ble.o
 .debug_macro   0x0000000000000ceb       0x44 src/ble/ble.o
 .debug_macro   0x0000000000000d2f       0xe3 src/ble/ble.o
 .debug_macro   0x0000000000000e12       0x22 src/ble/ble.o
 .debug_macro   0x0000000000000e34      0x1df src/ble/ble.o
 .debug_macro   0x0000000000001013       0x58 src/ble/ble.o
 .debug_macro   0x000000000000106b       0x35 src/ble/ble.o
 .debug_macro   0x00000000000010a0       0x9c src/ble/ble.o
 .debug_macro   0x000000000000113c      0x16d src/ble/ble.o
 .debug_macro   0x00000000000012a9       0x52 src/ble/ble.o
 .debug_macro   0x00000000000012fb       0x16 src/ble/ble.o
 .debug_macro   0x0000000000001311       0x43 src/ble/ble.o
 .debug_macro   0x0000000000001354      0x180 src/ble/ble.o
 .debug_macro   0x00000000000014d4      0x27a src/ble/ble.o
 .debug_macro   0x000000000000174e       0x10 src/ble/ble.o
 .debug_macro   0x000000000000175e       0x35 src/ble/ble.o
 .debug_macro   0x0000000000001793       0xf4 src/ble/ble.o
 .debug_macro   0x0000000000001887       0x22 src/ble/ble.o
 .debug_macro   0x00000000000018a9       0x3a src/ble/ble.o
 .debug_macro   0x00000000000018e3       0x1f src/ble/ble.o
 .debug_macro   0x0000000000001902      0x242 src/ble/ble.o
 .debug_macro   0x0000000000001b44      0x1e0 src/ble/ble.o
 .debug_macro   0x0000000000001d24     0x74a3 src/ble/ble.o
 .debug_macro   0x00000000000091c7      0x963 src/ble/ble.o
 .debug_macro   0x0000000000009b2a       0x10 src/ble/ble.o
 .debug_macro   0x0000000000009b3a       0x22 src/ble/ble.o
 .debug_macro   0x0000000000009b5c       0x8e src/ble/ble.o
 .debug_macro   0x0000000000009bea       0x16 src/ble/ble.o
 .debug_macro   0x0000000000009c00       0x1c src/ble/ble.o
 .debug_macro   0x0000000000009c1c       0x10 src/ble/ble.o
 .debug_macro   0x0000000000009c2c       0x10 src/ble/ble.o
 .debug_macro   0x0000000000009c3c       0x22 src/ble/ble.o
 .debug_macro   0x0000000000009c5e       0xbe src/ble/ble.o
 .debug_macro   0x0000000000009d1c       0x16 src/ble/ble.o
 .debug_macro   0x0000000000009d32      0x197 src/ble/ble.o
 .debug_macro   0x0000000000009ec9       0x22 src/ble/ble.o
 .debug_macro   0x0000000000009eeb       0x1c src/ble/ble.o
 .debug_macro   0x0000000000009f07       0x41 src/ble/ble.o
 .debug_macro   0x0000000000009f48       0xd6 src/ble/ble.o
 .debug_macro   0x000000000000a01e      0x1e1 src/ble/ble.o
 .debug_macro   0x000000000000a1ff       0x10 src/ble/ble.o
 .debug_macro   0x000000000000a20f      0x308 src/ble/ble.o
 .debug_macro   0x000000000000a517       0x34 src/ble/ble.o
 .debug_macro   0x000000000000a54b       0x22 src/ble/ble.o
 .debug_macro   0x000000000000a56d      0x1d5 src/ble/ble.o
 .debug_macro   0x000000000000a742       0x16 src/ble/ble.o
 .debug_macro   0x000000000000a758       0xb8 src/ble/ble.o
 .debug_macro   0x000000000000a810       0x1c src/ble/ble.o
 .debug_macro   0x000000000000a82c      0x245 src/ble/ble.o
 .debug_macro   0x000000000000aa71       0x3a src/ble/ble.o
 .debug_macro   0x000000000000aaab       0x16 src/ble/ble.o
 .debug_macro   0x000000000000aac1       0x16 src/ble/ble.o
 .debug_macro   0x000000000000aad7       0x16 src/ble/ble.o
 .debug_macro   0x000000000000aaed       0x29 src/ble/ble.o
 .debug_macro   0x000000000000ab16       0x46 src/ble/ble.o
 .debug_macro   0x000000000000ab5c       0x64 src/ble/ble.o
 .debug_macro   0x000000000000abc0       0x1c src/ble/ble.o
 .debug_macro   0x000000000000abdc       0x16 src/ble/ble.o
 .debug_macro   0x000000000000abf2       0x10 src/ble/ble.o
 .debug_macro   0x000000000000ac02       0x16 src/ble/ble.o
 .debug_macro   0x000000000000ac18       0x46 src/ble/ble.o
 .debug_macro   0x000000000000ac5e       0x22 src/ble/ble.o
 .debug_macro   0x000000000000ac80       0x22 src/ble/ble.o
 .debug_macro   0x000000000000aca2       0x5e src/ble/ble.o
 .debug_macro   0x000000000000ad00       0x28 src/ble/ble.o
 .debug_macro   0x000000000000ad28       0x98 src/ble/ble.o
 .debug_macro   0x000000000000adc0       0x2e src/ble/ble.o
 .debug_macro   0x000000000000adee       0x28 src/ble/ble.o
 .debug_macro   0x000000000000ae16      0x1d4 src/ble/ble_crazyflies.o
 .debug_macro   0x000000000000afea      0x10e src/ble/ble_crazyflies.o
 .debug_macro   0x000000000000b0f8       0x86 src/ble/ble_crazyflies.o
 .debug_macro   0x000000000000b17e       0x4a src/ble/ble_crazyflies.o
 .debug_macro   0x000000000000b1c8       0x16 src/ble/ble_crazyflies.o
 .debug_macro   0x000000000000b1de      0x1db src/ble/ble_crazyflies.o
 .debug_macro   0x000000000000b3b9      0x1d0 src/ble/timeslot.o
 .debug_macro   0x000000000000b589       0x40 src/ble/timeslot.o
 .debug_macro   0x000000000000b5c9      0x1d6 nrf51_sdk/nrf51822/Source/ble/ble_advdata.o
 .debug_macro   0x000000000000b79f       0x1c nrf51_sdk/nrf51822/Source/ble/ble_advdata.o
 .debug_macro   0x000000000000b7bb      0x265 nrf51_sdk/nrf51822/Source/ble/ble_conn_params.o
 .debug_macro   0x000000000000ba20       0xa6 nrf51_sdk/nrf51822/Source/ble/ble_conn_params.o
 .debug_macro   0x000000000000bac6      0x184 nrf51_sdk/nrf51822/Source/ble/ble_services/ble_srv_common.o
 .debug_macro   0x000000000000bc4a      0x20a nrf51_sdk/nrf51822/Source/ble/ble_services/ble_dis.o
 .debug_macro   0x000000000000be54       0x10 nrf51_sdk/nrf51822/Source/ble/ble_services/ble_dis.o
 .debug_macro   0x000000000000be64       0xb2 nrf51_sdk/nrf51822/Source/ble/ble_services/ble_dis.o
 .debug_macro   0x000000000000bf16      0x284 nrf51_sdk/nrf51822/Source/sd_common/softdevice_handler.o
 .debug_macro   0x000000000000c19a       0x16 nrf51_sdk/nrf51822/Source/sd_common/softdevice_handler.o
 .debug_macro   0x000000000000c1b0      0x30e nrf51_sdk/nrf51822/Source/sd_common/softdevice_handler.o
 .debug_macro   0x000000000000c4be       0x3a nrf51_sdk/nrf51822/Source/sd_common/softdevice_handler.o
 .debug_macro   0x000000000000c4f8       0x10 nrf51_sdk/nrf51822/Source/sd_common/softdevice_handler.o
 .debug_macro   0x000000000000c508       0x10 nrf51_sdk/nrf51822/Source/sd_common/softdevice_handler.o
 .debug_macro   0x000000000000c518      0x2a8 nrf51_sdk/nrf51822/Source/app_common/app_timer.o
 .debug_macro   0x000000000000c7c0       0x16 nrf51_sdk/nrf51822/Source/app_common/app_timer.o
 .debug_macro   0x000000000000c7d6       0x97 nrf51_sdk/nrf51822/Source/app_common/app_timer.o
 .debug_macro   0x000000000000c86d       0xf6 nrf51_sdk/nrf51822/Source/app_common/app_timer.o
 .debug_macro   0x000000000000c963      0x976 nrf51_sdk/nrf51822/Source/app_common/app_timer.o
 .debug_macro   0x000000000000d2d9       0x28 nrf51_sdk/nrf51822/Source/app_common/app_timer.o
 .debug_macro   0x000000000000d301      0x265 nrf51_sdk/nrf51822/Source/app_common/pstorage.o
 .debug_macro   0x000000000000d566       0x40 nrf51_sdk/nrf51822/Source/app_common/pstorage.o
 .debug_macro   0x000000000000d5a6      0x3dc nrf51_sdk/nrf51822/Source/ble/device_manager/device_manager_peripheral.o
 .debug_macro   0x000000000000d982       0x58 nrf51_sdk/nrf51822/Source/ble/device_manager/device_manager_peripheral.o
 .debug_macro   0x000000000000d9da       0x28 nrf51_sdk/nrf51822/Source/ble/device_manager/device_manager_peripheral.o
 .debug_macro   0x000000000000da02       0x16 nrf51_sdk/nrf51822/Source/ble/device_manager/device_manager_peripheral.o
 .debug_macro   0x000000000000da18       0x1c nrf51_sdk/nrf51822/Source/ble/device_manager/device_manager_peripheral.o
 .debug_macro   0x000000000000da34      0x357 src/main.o
 .debug_macro   0x000000000000dd8b       0x88 src/main.o
 .debug_macro   0x000000000000de13       0xbe src/main.o
 .debug_macro   0x000000000000ded1       0x1c src/main.o
 .debug_macro   0x000000000000deed       0x28 src/main.o
 .debug_macro   0x000000000000df15       0x16 src/main.o
 .debug_macro   0x000000000000df2b      0x425 src/main.o
 .debug_macro   0x000000000000e350       0xd0 system_nrf51.o
 .debug_macro   0x000000000000e420       0xe9 src/uart.o
 .debug_macro   0x000000000000e509       0xfa src/syslink.o
 .debug_macro   0x000000000000e603       0x82 src/syslink.o
 .debug_macro   0x000000000000e685      0x152 src/pm.o
 .debug_macro   0x000000000000e7d7       0x22 src/pm.o
 .debug_macro   0x000000000000e7f9       0x22 src/pm.o
 .debug_macro   0x000000000000e81b       0xbd src/systick.o
 .debug_macro   0x000000000000e8d8       0xf6 src/button.o
 .debug_macro   0x000000000000e9ce       0xf3 src/swd.o
 .debug_macro   0x000000000000eac1      0x179 src/ow.o
 .debug_macro   0x000000000000ec3a       0x10 src/ow.o
 .debug_macro   0x000000000000ec4a      0x23b src/ow.o
 .debug_macro   0x000000000000ee85      0x207 src/ow/owlnk.o
 .debug_macro   0x000000000000f08c      0x150 src/ow/ownet.o
 .debug_macro   0x000000000000f1dc      0x14a src/ow/owtran.o
 .debug_macro   0x000000000000f326      0x14a src/ow/crcutil.o
 .debug_macro   0x000000000000f470      0x1a7 src/ds2431.o
 .debug_macro   0x000000000000f617      0x1cf src/ds28e05.o
 .debug_macro   0x000000000000f7e6      0x23d src/esb.o
 .debug_macro   0x000000000000fa23       0x22 src/esb.o
 .debug_macro   0x000000000000fa45      0x1d2 src/memory.o
 .debug_macro   0x000000000000fc17       0x10 src/memory.o

.debug_str      0x0000000000000000    0x449b1
 .debug_str     0x0000000000000000    0x3bf9e src/ble/ble.o
                                      0x3c469 (size before relaxing)
 .debug_str     0x000000000003bf9e      0x287 src/ble/ble_crazyflies.o
                                       0xb17d (size before relaxing)
 .debug_str     0x000000000003c225      0x54a src/ble/timeslot.o
                                      0x32fa3 (size before relaxing)
 .debug_str     0x000000000003c76f      0x29e nrf51_sdk/nrf51822/Source/ble/ble_advdata.o
                                       0xbacd (size before relaxing)
 .debug_str     0x000000000003ca0d      0x6af nrf51_sdk/nrf51822/Source/ble/ble_conn_params.o
                                       0xdbc3 (size before relaxing)
 .debug_str     0x000000000003d0bc       0xd8 nrf51_sdk/nrf51822/Source/ble/ble_services/ble_srv_common.o
                                       0xa49c (size before relaxing)
 .debug_str     0x000000000003d194      0x17a nrf51_sdk/nrf51822/Source/ble/ble_services/ble_dis.o
                                       0xb55d (size before relaxing)
 .debug_str     0x000000000003d30e      0x204 nrf51_sdk/nrf51822/Source/sd_common/softdevice_handler.o
                                      0x3586f (size before relaxing)
 .debug_str     0x000000000003d512      0xbf2 nrf51_sdk/nrf51822/Source/app_common/app_timer.o
                                      0x34bf2 (size before relaxing)
 .debug_str     0x000000000003e104      0x9ee nrf51_sdk/nrf51822/Source/app_common/pstorage.o
                                      0x33c4f (size before relaxing)
 .debug_str     0x000000000003eaf2     0x1277 nrf51_sdk/nrf51822/Source/ble/device_manager/device_manager_peripheral.o
                                       0xe2c5 (size before relaxing)
 .debug_str     0x000000000003fd69     0x1ccd src/main.o
                                      0x39e6c (size before relaxing)
 .debug_str     0x0000000000041a36       0xf0 system_nrf51.o
                                      0x2ed42 (size before relaxing)
 .debug_str     0x0000000000041b26      0x1e8 src/uart.o
                                      0x2f364 (size before relaxing)
 .debug_str     0x0000000000041d0e       0xde src/syslink.o
                                      0x2f1b5 (size before relaxing)
 .debug_str     0x0000000000041dec      0x1c7 src/pm.o
                                      0x30da3 (size before relaxing)
 .debug_str     0x0000000000041fb3       0x3b src/systick.o
                                      0x2ef12 (size before relaxing)
 .debug_str     0x0000000000041fee       0x63 src/button.o
                                      0x2f125 (size before relaxing)
 .debug_str     0x0000000000042051       0xb6 src/swd.o
                                      0x2f0a1 (size before relaxing)
 .debug_str     0x0000000000042107      0x48e src/ow.o
                                      0x30be4 (size before relaxing)
 .debug_str     0x0000000000042595       0xdd src/ow/owlnk.o
                                      0x332cd (size before relaxing)
 .debug_str     0x0000000000042672      0x17c src/ow/ownet.o
                                       0x69a6 (size before relaxing)
 .debug_str     0x00000000000427ee       0x71 src/ow/owtran.o
                                       0x68a8 (size before relaxing)
 .debug_str     0x000000000004285f       0x60 src/ow/crcutil.o
                                       0x688d (size before relaxing)
 .debug_str     0x00000000000428bf       0xfe src/ds2431.o
                                       0x732c (size before relaxing)
 .debug_str     0x00000000000429bd      0x139 src/ds28e05.o
                                       0x7369 (size before relaxing)
 .debug_str     0x0000000000042af6      0x49e src/esb.o
                                      0x35b31 (size before relaxing)
 .debug_str     0x0000000000042f94       0x8f src/memory.o
                                       0x75a0 (size before relaxing)
 .debug_str     0x0000000000043023      0x187 /usr/lib/gcc/arm-none-eabi/4.9.3/armv6-m/libgcc.a(divsf3.o)
                                        0x217 (size before relaxing)
 .debug_str     0x00000000000431aa       0x52 /usr/lib/gcc/arm-none-eabi/4.9.3/armv6-m/libgcc.a(mulsf3.o)
                                        0x24d (size before relaxing)
 .debug_str     0x00000000000431fc       0x46 /usr/lib/gcc/arm-none-eabi/4.9.3/armv6-m/libgcc.a(floatsisf.o)
                                        0x226 (size before relaxing)
 .debug_str     0x0000000000043242      0x178 /usr/lib/gcc/arm-none-eabi/4.9.3/../../../arm-none-eabi/lib/armv6-m/libc_nano.a(lib_a-atexit.o)
                                        0x211 (size before relaxing)
 .debug_str     0x00000000000433ba       0x9d /usr/lib/gcc/arm-none-eabi/4.9.3/../../../arm-none-eabi/lib/armv6-m/libc_nano.a(lib_a-bzero.o)
                                        0x1d9 (size before relaxing)
 .debug_str     0x0000000000043457      0x363 /usr/lib/gcc/arm-none-eabi/4.9.3/../../../arm-none-eabi/lib/armv6-m/libc_nano.a(lib_a-errno.o)
                                        0x525 (size before relaxing)
 .debug_str     0x00000000000437ba       0x3d /usr/lib/gcc/arm-none-eabi/4.9.3/../../../arm-none-eabi/lib/armv6-m/libc_nano.a(lib_a-exit.o)
                                        0x546 (size before relaxing)
 .debug_str     0x00000000000437f7       0xce /usr/lib/gcc/arm-none-eabi/4.9.3/../../../arm-none-eabi/lib/armv6-m/libc_nano.a(lib_a-fini.o)
                                        0x209 (size before relaxing)
 .debug_str     0x00000000000438c5       0xe1 /usr/lib/gcc/arm-none-eabi/4.9.3/../../../arm-none-eabi/lib/armv6-m/libc_nano.a(lib_a-impure.o)
                                        0x57c (size before relaxing)
 .debug_str     0x00000000000439a6       0x8a /usr/lib/gcc/arm-none-eabi/4.9.3/../../../arm-none-eabi/lib/armv6-m/libc_nano.a(lib_a-init.o)
                                        0x233 (size before relaxing)
 .debug_str     0x0000000000043a30       0x35 /usr/lib/gcc/arm-none-eabi/4.9.3/../../../arm-none-eabi/lib/armv6-m/libc_nano.a(lib_a-memcmp.o)
                                        0x1d4 (size before relaxing)
 .debug_str     0x0000000000043a65       0x49 /usr/lib/gcc/arm-none-eabi/4.9.3/../../../arm-none-eabi/lib/armv6-m/libc_nano.a(lib_a-memcpy.o)
                                        0x1e8 (size before relaxing)
 .debug_str     0x0000000000043aae       0x35 /usr/lib/gcc/arm-none-eabi/4.9.3/../../../arm-none-eabi/lib/armv6-m/libc_nano.a(lib_a-memset.o)
                                        0x1d4 (size before relaxing)
 .debug_str     0x0000000000043ae3       0xb9 /usr/lib/gcc/arm-none-eabi/4.9.3/../../../arm-none-eabi/lib/armv6-m/libc_nano.a(lib_a-printf.o)
                                        0x56e (size before relaxing)
 .debug_str     0x0000000000043b9c       0xac /usr/lib/gcc/arm-none-eabi/4.9.3/../../../arm-none-eabi/lib/armv6-m/libc_nano.a(lib_a-strlen.o)
                                        0x1e9 (size before relaxing)
 .debug_str     0x0000000000043c48       0xaf /usr/lib/gcc/arm-none-eabi/4.9.3/../../../arm-none-eabi/lib/armv6-m/libc_nano.a(lib_a-__atexit.o)
                                        0x2b7 (size before relaxing)
 .debug_str     0x0000000000043cf7       0x51 /usr/lib/gcc/arm-none-eabi/4.9.3/../../../arm-none-eabi/lib/armv6-m/libc_nano.a(lib_a-__call_atexit.o)
                                        0x27d (size before relaxing)
 .debug_str     0x0000000000043d48      0x197 /usr/lib/gcc/arm-none-eabi/4.9.3/../../../arm-none-eabi/lib/armv6-m/libc_nano.a(lib_a-findfp.o)
                                        0x728 (size before relaxing)
 .debug_str     0x0000000000043edf       0x3b /usr/lib/gcc/arm-none-eabi/4.9.3/../../../arm-none-eabi/lib/armv6-m/libc_nano.a(lib_a-fwalk.o)
                                        0x542 (size before relaxing)
 .debug_str     0x0000000000043f1a       0xb2 /usr/lib/gcc/arm-none-eabi/4.9.3/../../../arm-none-eabi/lib/armv6-m/libc_nano.a(lib_a-nano-mallocr.o)
                                        0x5ca (size before relaxing)
 .debug_str     0x0000000000043fcc      0x1e8 /usr/lib/gcc/arm-none-eabi/4.9.3/../../../arm-none-eabi/lib/armv6-m/libc_nano.a(lib_a-nano-vfprintf.o)
                                        0x712 (size before relaxing)
 .debug_str     0x00000000000441b4       0x87 /usr/lib/gcc/arm-none-eabi/4.9.3/../../../arm-none-eabi/lib/armv6-m/libc_nano.a(lib_a-nano-vfprintf_i.o)
                                        0x64d (size before relaxing)
 .debug_str     0x000000000004423b       0x37 /usr/lib/gcc/arm-none-eabi/4.9.3/../../../arm-none-eabi/lib/armv6-m/libc_nano.a(lib_a-sbrkr.o)
                                        0x534 (size before relaxing)
 .debug_str     0x0000000000044272       0x8c /usr/lib/gcc/arm-none-eabi/4.9.3/../../../arm-none-eabi/lib/armv6-m/libc_nano.a(lib_a-stdio.o)
                                        0x598 (size before relaxing)
 .debug_str     0x00000000000442fe       0x3d /usr/lib/gcc/arm-none-eabi/4.9.3/../../../arm-none-eabi/lib/armv6-m/libc_nano.a(lib_a-wbuf.o)
                                        0x5a0 (size before relaxing)
 .debug_str     0x000000000004433b       0x2d /usr/lib/gcc/arm-none-eabi/4.9.3/../../../arm-none-eabi/lib/armv6-m/libc_nano.a(lib_a-writer.o)
                                        0x531 (size before relaxing)
 .debug_str     0x0000000000044368       0x42 /usr/lib/gcc/arm-none-eabi/4.9.3/../../../arm-none-eabi/lib/armv6-m/libc_nano.a(lib_a-wsetup.o)
                                        0x59b (size before relaxing)
 .debug_str     0x00000000000443aa       0x2d /usr/lib/gcc/arm-none-eabi/4.9.3/../../../arm-none-eabi/lib/armv6-m/libc_nano.a(lib_a-closer.o)
                                        0x521 (size before relaxing)
 .debug_str     0x00000000000443d7       0x50 /usr/lib/gcc/arm-none-eabi/4.9.3/../../../arm-none-eabi/lib/armv6-m/libc_nano.a(lib_a-fflush.o)
                                        0x5dc (size before relaxing)
 .debug_str     0x0000000000044427       0x5f /usr/lib/gcc/arm-none-eabi/4.9.3/../../../arm-none-eabi/lib/armv6-m/libc_nano.a(lib_a-fvwrite.o)
                                        0x5cf (size before relaxing)
 .debug_str     0x0000000000044486       0x34 /usr/lib/gcc/arm-none-eabi/4.9.3/../../../arm-none-eabi/lib/armv6-m/libc_nano.a(lib_a-lseekr.o)
                                        0x52f (size before relaxing)
 .debug_str     0x00000000000444ba      0x10e /usr/lib/gcc/arm-none-eabi/4.9.3/../../../arm-none-eabi/lib/armv6-m/libc_nano.a(lib_a-makebuf.o)
                                        0x63f (size before relaxing)
 .debug_str     0x00000000000445c8       0x37 /usr/lib/gcc/arm-none-eabi/4.9.3/../../../arm-none-eabi/lib/armv6-m/libc_nano.a(lib_a-memchr.o)
                                        0x1e4 (size before relaxing)
 .debug_str     0x00000000000445ff       0x38 /usr/lib/gcc/arm-none-eabi/4.9.3/../../../arm-none-eabi/lib/armv6-m/libc_nano.a(lib_a-memmove.o)
                                        0x1ef (size before relaxing)
 .debug_str     0x0000000000044637       0x24 /usr/lib/gcc/arm-none-eabi/4.9.3/../../../arm-none-eabi/lib/armv6-m/libc_nano.a(lib_a-nano-freer.o)
                                        0x595 (size before relaxing)
 .debug_str     0x000000000004465b       0x23 /usr/lib/gcc/arm-none-eabi/4.9.3/../../../arm-none-eabi/lib/armv6-m/libc_nano.a(lib_a-nano-reallocr.o)
                                        0x59d (size before relaxing)
 .debug_str     0x000000000004467e       0x2c /usr/lib/gcc/arm-none-eabi/4.9.3/../../../arm-none-eabi/lib/armv6-m/libc_nano.a(lib_a-readr.o)
                                        0x52f (size before relaxing)
 .debug_str     0x00000000000446aa       0x58 /usr/lib/gcc/arm-none-eabi/4.9.3/../../../arm-none-eabi/lib/armv6-m/libc_nano.a(lib_a-reent.o)
                                        0x55c (size before relaxing)
 .debug_str     0x0000000000044702       0x3a /usr/lib/gcc/arm-none-eabi/4.9.3/../../../arm-none-eabi/lib/armv6-m/libc_nano.a(lib_a-fstatr.o)
                                        0x614 (size before relaxing)
 .debug_str     0x000000000004473c       0x36 /usr/lib/gcc/arm-none-eabi/4.9.3/../../../arm-none-eabi/lib/armv6-m/libc_nano.a(lib_a-isattyr.o)
                                        0x52b (size before relaxing)
 .debug_str     0x0000000000044772        0xf /usr/lib/gcc/arm-none-eabi/4.9.3/../../../arm-none-eabi/lib/armv6-m/libc_nano.a(lib_a-nano-msizer.o)
                                        0x57b (size before relaxing)
 .debug_str     0x0000000000044781      0x104 /usr/lib/gcc/arm-none-eabi/4.9.3/../../../arm-none-eabi/lib/armv6-m/libnosys.a(close.o)
                                        0x1a3 (size before relaxing)
 .debug_str     0x0000000000044885       0x29 /usr/lib/gcc/arm-none-eabi/4.9.3/../../../arm-none-eabi/lib/armv6-m/libnosys.a(fstat.o)
                                        0x290 (size before relaxing)
 .debug_str     0x00000000000448ae       0x2a /usr/lib/gcc/arm-none-eabi/4.9.3/../../../arm-none-eabi/lib/armv6-m/libnosys.a(isatty.o)
                                        0x1a3 (size before relaxing)
 .debug_str     0x00000000000448d8       0x29 /usr/lib/gcc/arm-none-eabi/4.9.3/../../../arm-none-eabi/lib/armv6-m/libnosys.a(lseek.o)
                                        0x1a1 (size before relaxing)
 .debug_str     0x0000000000044901       0x28 /usr/lib/gcc/arm-none-eabi/4.9.3/../../../arm-none-eabi/lib/armv6-m/libnosys.a(read.o)
                                        0x19f (size before relaxing)
 .debug_str     0x0000000000044929       0x36 /usr/lib/gcc/arm-none-eabi/4.9.3/../../../arm-none-eabi/lib/armv6-m/libnosys.a(sbrk.o)
                                        0x123 (size before relaxing)
 .debug_str     0x000000000004495f       0x29 /usr/lib/gcc/arm-none-eabi/4.9.3/../../../arm-none-eabi/lib/armv6-m/libnosys.a(write.o)
                                        0x1a1 (size before relaxing)
 .debug_str     0x0000000000044988       0x29 /usr/lib/gcc/arm-none-eabi/4.9.3/../../../arm-none-eabi/lib/armv6-m/libnosys.a(_exit.o)
                                        0x103 (size before relaxing)

.debug_frame    0x0000000000000000     0x67f4
 .debug_frame   0x0000000000000000      0x958 src/ble/ble.o
 .debug_frame   0x0000000000000958      0x428 src/ble/ble_crazyflies.o
 .debug_frame   0x0000000000000d80      0x3bc src/ble/timeslot.o
 .debug_frame   0x000000000000113c      0x550 nrf51_sdk/nrf51822/Source/ble/ble_advdata.o
 .debug_frame   0x000000000000168c      0x50c nrf51_sdk/nrf51822/Source/ble/ble_conn_params.o
 .debug_frame   0x0000000000001b98      0x1a0 nrf51_sdk/nrf51822/Source/ble/ble_services/ble_srv_common.o
 .debug_frame   0x0000000000001d38      0x2e4 nrf51_sdk/nrf51822/Source/ble/ble_services/ble_dis.o
 .debug_frame   0x000000000000201c      0x7e0 nrf51_sdk/nrf51822/Source/sd_common/softdevice_handler.o
 .debug_frame   0x00000000000027fc      0x864 nrf51_sdk/nrf51822/Source/app_common/app_timer.o
 .debug_frame   0x0000000000003060      0x568 nrf51_sdk/nrf51822/Source/app_common/pstorage.o
 .debug_frame   0x00000000000035c8      0x970 nrf51_sdk/nrf51822/Source/ble/device_manager/device_manager_peripheral.o
 .debug_frame   0x0000000000003f38      0x71c src/main.o
 .debug_frame   0x0000000000004654       0x80 system_nrf51.o
 .debug_frame   0x00000000000046d4      0x168 src/uart.o
 .debug_frame   0x000000000000483c       0x50 src/syslink.o
 .debug_frame   0x000000000000488c      0x5a8 src/pm.o
 .debug_frame   0x0000000000004e34       0xa8 src/systick.o
 .debug_frame   0x0000000000004edc       0x8c src/button.o
 .debug_frame   0x0000000000004f68       0x8c src/swd.o
 .debug_frame   0x0000000000004ff4       0xb0 src/ow.o
 .debug_frame   0x00000000000050a4      0x168 src/ow/owlnk.o
 .debug_frame   0x000000000000520c      0x130 src/ow/ownet.o
 .debug_frame   0x000000000000533c       0x50 src/ow/owtran.o
 .debug_frame   0x000000000000538c       0x90 src/ow/crcutil.o
 .debug_frame   0x000000000000541c       0xb0 src/ds2431.o
 .debug_frame   0x00000000000054cc       0x50 src/ds28e05.o
 .debug_frame   0x000000000000551c      0x778 src/esb.o
 .debug_frame   0x0000000000005c94       0x8c src/memory.o
 .debug_frame   0x0000000000005d20       0x20 /usr/lib/gcc/arm-none-eabi/4.9.3/armv6-m/libgcc.a(_udivsi3.o)
 .debug_frame   0x0000000000005d40       0x20 /usr/lib/gcc/arm-none-eabi/4.9.3/armv6-m/libgcc.a(_divsi3.o)
 .debug_frame   0x0000000000005d60       0x3c /usr/lib/gcc/arm-none-eabi/4.9.3/armv6-m/libgcc.a(divsf3.o)
 .debug_frame   0x0000000000005d9c       0x3c /usr/lib/gcc/arm-none-eabi/4.9.3/armv6-m/libgcc.a(mulsf3.o)
 .debug_frame   0x0000000000005dd8       0x2c /usr/lib/gcc/arm-none-eabi/4.9.3/armv6-m/libgcc.a(floatsisf.o)
 .debug_frame   0x0000000000005e04       0x28 /usr/lib/gcc/arm-none-eabi/4.9.3/../../../arm-none-eabi/lib/armv6-m/libc_nano.a(lib_a-atexit.o)
 .debug_frame   0x0000000000005e2c       0x20 /usr/lib/gcc/arm-none-eabi/4.9.3/../../../arm-none-eabi/lib/armv6-m/libc_nano.a(lib_a-bzero.o)
 .debug_frame   0x0000000000005e4c       0x20 /usr/lib/gcc/arm-none-eabi/4.9.3/../../../arm-none-eabi/lib/armv6-m/libc_nano.a(lib_a-errno.o)
 .debug_frame   0x0000000000005e6c       0x28 /usr/lib/gcc/arm-none-eabi/4.9.3/../../../arm-none-eabi/lib/armv6-m/libc_nano.a(lib_a-exit.o)
 .debug_frame   0x0000000000005e94       0x2c /usr/lib/gcc/arm-none-eabi/4.9.3/../../../arm-none-eabi/lib/armv6-m/libc_nano.a(lib_a-fini.o)
 .debug_frame   0x0000000000005ec0       0x2c /usr/lib/gcc/arm-none-eabi/4.9.3/../../../arm-none-eabi/lib/armv6-m/libc_nano.a(lib_a-init.o)
 .debug_frame   0x0000000000005eec       0x2c /usr/lib/gcc/arm-none-eabi/4.9.3/../../../arm-none-eabi/lib/armv6-m/libc_nano.a(lib_a-memcmp.o)
 .debug_frame   0x0000000000005f18       0x28 /usr/lib/gcc/arm-none-eabi/4.9.3/../../../arm-none-eabi/lib/armv6-m/libc_nano.a(lib_a-memcpy.o)
 .debug_frame   0x0000000000005f40       0x20 /usr/lib/gcc/arm-none-eabi/4.9.3/../../../arm-none-eabi/lib/armv6-m/libc_nano.a(lib_a-memset.o)
 .debug_frame   0x0000000000005f60       0x50 /usr/lib/gcc/arm-none-eabi/4.9.3/../../../arm-none-eabi/lib/armv6-m/libc_nano.a(lib_a-printf.o)
 .debug_frame   0x0000000000005fb0       0x20 /usr/lib/gcc/arm-none-eabi/4.9.3/../../../arm-none-eabi/lib/armv6-m/libc_nano.a(lib_a-strlen.o)
 .debug_frame   0x0000000000005fd0       0x34 /usr/lib/gcc/arm-none-eabi/4.9.3/../../../arm-none-eabi/lib/armv6-m/libc_nano.a(lib_a-__atexit.o)
 .debug_frame   0x0000000000006004       0x30 /usr/lib/gcc/arm-none-eabi/4.9.3/../../../arm-none-eabi/lib/armv6-m/libc_nano.a(lib_a-__call_atexit.o)
 .debug_frame   0x0000000000006034      0x140 /usr/lib/gcc/arm-none-eabi/4.9.3/../../../arm-none-eabi/lib/armv6-m/libc_nano.a(lib_a-findfp.o)
 .debug_frame   0x0000000000006174       0x58 /usr/lib/gcc/arm-none-eabi/4.9.3/../../../arm-none-eabi/lib/armv6-m/libc_nano.a(lib_a-fwalk.o)
 .debug_frame   0x00000000000061cc       0x2c /usr/lib/gcc/arm-none-eabi/4.9.3/../../../arm-none-eabi/lib/armv6-m/libc_nano.a(lib_a-nano-mallocr.o)
 .debug_frame   0x00000000000061f8       0xa0 /usr/lib/gcc/arm-none-eabi/4.9.3/../../../arm-none-eabi/lib/armv6-m/libc_nano.a(lib_a-nano-vfprintf.o)
 .debug_frame   0x0000000000006298       0x54 /usr/lib/gcc/arm-none-eabi/4.9.3/../../../arm-none-eabi/lib/armv6-m/libc_nano.a(lib_a-nano-vfprintf_i.o)
 .debug_frame   0x00000000000062ec       0x2c /usr/lib/gcc/arm-none-eabi/4.9.3/../../../arm-none-eabi/lib/armv6-m/libc_nano.a(lib_a-sbrkr.o)
 .debug_frame   0x0000000000006318       0x90 /usr/lib/gcc/arm-none-eabi/4.9.3/../../../arm-none-eabi/lib/armv6-m/libc_nano.a(lib_a-stdio.o)
 .debug_frame   0x00000000000063a8       0x44 /usr/lib/gcc/arm-none-eabi/4.9.3/../../../arm-none-eabi/lib/armv6-m/libc_nano.a(lib_a-wbuf.o)
 .debug_frame   0x00000000000063ec       0x2c /usr/lib/gcc/arm-none-eabi/4.9.3/../../../arm-none-eabi/lib/armv6-m/libc_nano.a(lib_a-writer.o)
 .debug_frame   0x0000000000006418       0x2c /usr/lib/gcc/arm-none-eabi/4.9.3/../../../arm-none-eabi/lib/armv6-m/libc_nano.a(lib_a-wsetup.o)
 .debug_frame   0x0000000000006444       0x2c /usr/lib/gcc/arm-none-eabi/4.9.3/../../../arm-none-eabi/lib/armv6-m/libc_nano.a(lib_a-closer.o)
 .debug_frame   0x0000000000006470       0x68 /usr/lib/gcc/arm-none-eabi/4.9.3/../../../arm-none-eabi/lib/armv6-m/libc_nano.a(lib_a-fflush.o)
 .debug_frame   0x00000000000064d8       0x30 /usr/lib/gcc/arm-none-eabi/4.9.3/../../../arm-none-eabi/lib/armv6-m/libc_nano.a(lib_a-fvwrite.o)
 .debug_frame   0x0000000000006508       0x2c /usr/lib/gcc/arm-none-eabi/4.9.3/../../../arm-none-eabi/lib/armv6-m/libc_nano.a(lib_a-lseekr.o)
 .debug_frame   0x0000000000006534       0x30 /usr/lib/gcc/arm-none-eabi/4.9.3/../../../arm-none-eabi/lib/armv6-m/libc_nano.a(lib_a-makebuf.o)
 .debug_frame   0x0000000000006564       0x20 /usr/lib/gcc/arm-none-eabi/4.9.3/../../../arm-none-eabi/lib/armv6-m/libc_nano.a(lib_a-memchr.o)
 .debug_frame   0x0000000000006584       0x28 /usr/lib/gcc/arm-none-eabi/4.9.3/../../../arm-none-eabi/lib/armv6-m/libc_nano.a(lib_a-memmove.o)
 .debug_frame   0x00000000000065ac       0x2c /usr/lib/gcc/arm-none-eabi/4.9.3/../../../arm-none-eabi/lib/armv6-m/libc_nano.a(lib_a-nano-freer.o)
 .debug_frame   0x00000000000065d8       0x30 /usr/lib/gcc/arm-none-eabi/4.9.3/../../../arm-none-eabi/lib/armv6-m/libc_nano.a(lib_a-nano-reallocr.o)
 .debug_frame   0x0000000000006608       0x2c /usr/lib/gcc/arm-none-eabi/4.9.3/../../../arm-none-eabi/lib/armv6-m/libc_nano.a(lib_a-readr.o)
 .debug_frame   0x0000000000006634       0x48 /usr/lib/gcc/arm-none-eabi/4.9.3/../../../arm-none-eabi/lib/armv6-m/libc_nano.a(lib_a-reent.o)
 .debug_frame   0x000000000000667c       0x2c /usr/lib/gcc/arm-none-eabi/4.9.3/../../../arm-none-eabi/lib/armv6-m/libc_nano.a(lib_a-fstatr.o)
 .debug_frame   0x00000000000066a8       0x2c /usr/lib/gcc/arm-none-eabi/4.9.3/../../../arm-none-eabi/lib/armv6-m/libc_nano.a(lib_a-isattyr.o)
 .debug_frame   0x00000000000066d4       0x20 /usr/lib/gcc/arm-none-eabi/4.9.3/../../../arm-none-eabi/lib/armv6-m/libc_nano.a(lib_a-nano-msizer.o)
 .debug_frame   0x00000000000066f4       0x20 /usr/lib/gcc/arm-none-eabi/4.9.3/../../../arm-none-eabi/lib/armv6-m/libnosys.a(close.o)
 .debug_frame   0x0000000000006714       0x20 /usr/lib/gcc/arm-none-eabi/4.9.3/../../../arm-none-eabi/lib/armv6-m/libnosys.a(fstat.o)
 .debug_frame   0x0000000000006734       0x20 /usr/lib/gcc/arm-none-eabi/4.9.3/../../../arm-none-eabi/lib/armv6-m/libnosys.a(isatty.o)
 .debug_frame   0x0000000000006754       0x20 /usr/lib/gcc/arm-none-eabi/4.9.3/../../../arm-none-eabi/lib/armv6-m/libnosys.a(lseek.o)
 .debug_frame   0x0000000000006774       0x20 /usr/lib/gcc/arm-none-eabi/4.9.3/../../../arm-none-eabi/lib/armv6-m/libnosys.a(read.o)
 .debug_frame   0x0000000000006794       0x20 /usr/lib/gcc/arm-none-eabi/4.9.3/../../../arm-none-eabi/lib/armv6-m/libnosys.a(sbrk.o)
 .debug_frame   0x00000000000067b4       0x20 /usr/lib/gcc/arm-none-eabi/4.9.3/../../../arm-none-eabi/lib/armv6-m/libnosys.a(write.o)
 .debug_frame   0x00000000000067d4       0x20 /usr/lib/gcc/arm-none-eabi/4.9.3/../../../arm-none-eabi/lib/armv6-m/libnosys.a(_exit.o)

.debug_ranges   0x0000000000000000      0x550
 .debug_ranges  0x0000000000000000       0x18 nrf51_sdk/nrf51822/Source/ble/ble_conn_params.o
 .debug_ranges  0x0000000000000018       0x30 nrf51_sdk/nrf51822/Source/app_common/pstorage.o
 .debug_ranges  0x0000000000000048       0x50 /usr/lib/gcc/arm-none-eabi/4.9.3/armv6-m/libgcc.a(divsf3.o)
 .debug_ranges  0x0000000000000098       0x48 /usr/lib/gcc/arm-none-eabi/4.9.3/armv6-m/libgcc.a(mulsf3.o)
 .debug_ranges  0x00000000000000e0       0x48 /usr/lib/gcc/arm-none-eabi/4.9.3/armv6-m/libgcc.a(floatsisf.o)
 .debug_ranges  0x0000000000000128       0x10 /usr/lib/gcc/arm-none-eabi/4.9.3/../../../arm-none-eabi/lib/armv6-m/libc_nano.a(lib_a-atexit.o)
 .debug_ranges  0x0000000000000138       0x10 /usr/lib/gcc/arm-none-eabi/4.9.3/../../../arm-none-eabi/lib/armv6-m/libc_nano.a(lib_a-bzero.o)
 .debug_ranges  0x0000000000000148       0x10 /usr/lib/gcc/arm-none-eabi/4.9.3/../../../arm-none-eabi/lib/armv6-m/libc_nano.a(lib_a-errno.o)
 .debug_ranges  0x0000000000000158       0x10 /usr/lib/gcc/arm-none-eabi/4.9.3/../../../arm-none-eabi/lib/armv6-m/libc_nano.a(lib_a-exit.o)
 .debug_ranges  0x0000000000000168       0x10 /usr/lib/gcc/arm-none-eabi/4.9.3/../../../arm-none-eabi/lib/armv6-m/libc_nano.a(lib_a-fini.o)
 .debug_ranges  0x0000000000000178       0x10 /usr/lib/gcc/arm-none-eabi/4.9.3/../../../arm-none-eabi/lib/armv6-m/libc_nano.a(lib_a-init.o)
 .debug_ranges  0x0000000000000188       0x10 /usr/lib/gcc/arm-none-eabi/4.9.3/../../../arm-none-eabi/lib/armv6-m/libc_nano.a(lib_a-memcmp.o)
 .debug_ranges  0x0000000000000198       0x10 /usr/lib/gcc/arm-none-eabi/4.9.3/../../../arm-none-eabi/lib/armv6-m/libc_nano.a(lib_a-memcpy.o)
 .debug_ranges  0x00000000000001a8       0x10 /usr/lib/gcc/arm-none-eabi/4.9.3/../../../arm-none-eabi/lib/armv6-m/libc_nano.a(lib_a-memset.o)
 .debug_ranges  0x00000000000001b8       0x18 /usr/lib/gcc/arm-none-eabi/4.9.3/../../../arm-none-eabi/lib/armv6-m/libc_nano.a(lib_a-printf.o)
 .debug_ranges  0x00000000000001d0       0x10 /usr/lib/gcc/arm-none-eabi/4.9.3/../../../arm-none-eabi/lib/armv6-m/libc_nano.a(lib_a-strlen.o)
 .debug_ranges  0x00000000000001e0       0x10 /usr/lib/gcc/arm-none-eabi/4.9.3/../../../arm-none-eabi/lib/armv6-m/libc_nano.a(lib_a-__atexit.o)
 .debug_ranges  0x00000000000001f0       0x10 /usr/lib/gcc/arm-none-eabi/4.9.3/../../../arm-none-eabi/lib/armv6-m/libc_nano.a(lib_a-__call_atexit.o)
 .debug_ranges  0x0000000000000200       0x78 /usr/lib/gcc/arm-none-eabi/4.9.3/../../../arm-none-eabi/lib/armv6-m/libc_nano.a(lib_a-findfp.o)
 .debug_ranges  0x0000000000000278       0x18 /usr/lib/gcc/arm-none-eabi/4.9.3/../../../arm-none-eabi/lib/armv6-m/libc_nano.a(lib_a-fwalk.o)
 .debug_ranges  0x0000000000000290       0x28 /usr/lib/gcc/arm-none-eabi/4.9.3/../../../arm-none-eabi/lib/armv6-m/libc_nano.a(lib_a-nano-mallocr.o)
 .debug_ranges  0x00000000000002b8       0x30 /usr/lib/gcc/arm-none-eabi/4.9.3/../../../arm-none-eabi/lib/armv6-m/libc_nano.a(lib_a-nano-vfprintf.o)
 .debug_ranges  0x00000000000002e8       0x58 /usr/lib/gcc/arm-none-eabi/4.9.3/../../../arm-none-eabi/lib/armv6-m/libc_nano.a(lib_a-nano-vfprintf_i.o)
 .debug_ranges  0x0000000000000340       0x10 /usr/lib/gcc/arm-none-eabi/4.9.3/../../../arm-none-eabi/lib/armv6-m/libc_nano.a(lib_a-sbrkr.o)
 .debug_ranges  0x0000000000000350       0x30 /usr/lib/gcc/arm-none-eabi/4.9.3/../../../arm-none-eabi/lib/armv6-m/libc_nano.a(lib_a-stdio.o)
 .debug_ranges  0x0000000000000380       0x18 /usr/lib/gcc/arm-none-eabi/4.9.3/../../../arm-none-eabi/lib/armv6-m/libc_nano.a(lib_a-wbuf.o)
 .debug_ranges  0x0000000000000398       0x10 /usr/lib/gcc/arm-none-eabi/4.9.3/../../../arm-none-eabi/lib/armv6-m/libc_nano.a(lib_a-writer.o)
 .debug_ranges  0x00000000000003a8       0x30 /usr/lib/gcc/arm-none-eabi/4.9.3/../../../arm-none-eabi/lib/armv6-m/libc_nano.a(lib_a-wsetup.o)
 .debug_ranges  0x00000000000003d8       0x10 /usr/lib/gcc/arm-none-eabi/4.9.3/../../../arm-none-eabi/lib/armv6-m/libc_nano.a(lib_a-closer.o)
 .debug_ranges  0x00000000000003e8       0x20 /usr/lib/gcc/arm-none-eabi/4.9.3/../../../arm-none-eabi/lib/armv6-m/libc_nano.a(lib_a-fflush.o)
 .debug_ranges  0x0000000000000408       0x10 /usr/lib/gcc/arm-none-eabi/4.9.3/../../../arm-none-eabi/lib/armv6-m/libc_nano.a(lib_a-fvwrite.o)
 .debug_ranges  0x0000000000000418       0x10 /usr/lib/gcc/arm-none-eabi/4.9.3/../../../arm-none-eabi/lib/armv6-m/libc_nano.a(lib_a-lseekr.o)
 .debug_ranges  0x0000000000000428       0x10 /usr/lib/gcc/arm-none-eabi/4.9.3/../../../arm-none-eabi/lib/armv6-m/libc_nano.a(lib_a-makebuf.o)
 .debug_ranges  0x0000000000000438       0x10 /usr/lib/gcc/arm-none-eabi/4.9.3/../../../arm-none-eabi/lib/armv6-m/libc_nano.a(lib_a-memchr.o)
 .debug_ranges  0x0000000000000448       0x10 /usr/lib/gcc/arm-none-eabi/4.9.3/../../../arm-none-eabi/lib/armv6-m/libc_nano.a(lib_a-memmove.o)
 .debug_ranges  0x0000000000000458       0x10 /usr/lib/gcc/arm-none-eabi/4.9.3/../../../arm-none-eabi/lib/armv6-m/libc_nano.a(lib_a-nano-freer.o)
 .debug_ranges  0x0000000000000468       0x10 /usr/lib/gcc/arm-none-eabi/4.9.3/../../../arm-none-eabi/lib/armv6-m/libc_nano.a(lib_a-nano-reallocr.o)
 .debug_ranges  0x0000000000000478       0x10 /usr/lib/gcc/arm-none-eabi/4.9.3/../../../arm-none-eabi/lib/armv6-m/libc_nano.a(lib_a-readr.o)
 .debug_ranges  0x0000000000000488       0x18 /usr/lib/gcc/arm-none-eabi/4.9.3/../../../arm-none-eabi/lib/armv6-m/libc_nano.a(lib_a-reent.o)
 .debug_ranges  0x00000000000004a0       0x10 /usr/lib/gcc/arm-none-eabi/4.9.3/../../../arm-none-eabi/lib/armv6-m/libc_nano.a(lib_a-fstatr.o)
 .debug_ranges  0x00000000000004b0       0x10 /usr/lib/gcc/arm-none-eabi/4.9.3/../../../arm-none-eabi/lib/armv6-m/libc_nano.a(lib_a-isattyr.o)
 .debug_ranges  0x00000000000004c0       0x10 /usr/lib/gcc/arm-none-eabi/4.9.3/../../../arm-none-eabi/lib/armv6-m/libc_nano.a(lib_a-nano-msizer.o)
 .debug_ranges  0x00000000000004d0       0x10 /usr/lib/gcc/arm-none-eabi/4.9.3/../../../arm-none-eabi/lib/armv6-m/libnosys.a(close.o)
 .debug_ranges  0x00000000000004e0       0x10 /usr/lib/gcc/arm-none-eabi/4.9.3/../../../arm-none-eabi/lib/armv6-m/libnosys.a(fstat.o)
 .debug_ranges  0x00000000000004f0       0x10 /usr/lib/gcc/arm-none-eabi/4.9.3/../../../arm-none-eabi/lib/armv6-m/libnosys.a(isatty.o)
 .debug_ranges  0x0000000000000500       0x10 /usr/lib/gcc/arm-none-eabi/4.9.3/../../../arm-none-eabi/lib/armv6-m/libnosys.a(lseek.o)
 .debug_ranges  0x0000000000000510       0x10 /usr/lib/gcc/arm-none-eabi/4.9.3/../../../arm-none-eabi/lib/armv6-m/libnosys.a(read.o)
 .debug_ranges  0x0000000000000520       0x10 /usr/lib/gcc/arm-none-eabi/4.9.3/../../../arm-none-eabi/lib/armv6-m/libnosys.a(sbrk.o)
 .debug_ranges  0x0000000000000530       0x10 /usr/lib/gcc/arm-none-eabi/4.9.3/../../../arm-none-eabi/lib/armv6-m/libnosys.a(write.o)
 .debug_ranges  0x0000000000000540       0x10 /usr/lib/gcc/arm-none-eabi/4.9.3/../../../arm-none-eabi/lib/armv6-m/libnosys.a(_exit.o)

.debug_loc      0x0000000000000000     0x4014
 .debug_loc     0x0000000000000000      0x85c /usr/lib/gcc/arm-none-eabi/4.9.3/armv6-m/libgcc.a(divsf3.o)
 .debug_loc     0x000000000000085c      0x847 /usr/lib/gcc/arm-none-eabi/4.9.3/armv6-m/libgcc.a(mulsf3.o)
 .debug_loc     0x00000000000010a3      0x199 /usr/lib/gcc/arm-none-eabi/4.9.3/armv6-m/libgcc.a(floatsisf.o)
 .debug_loc     0x000000000000123c       0x2c /usr/lib/gcc/arm-none-eabi/4.9.3/../../../arm-none-eabi/lib/armv6-m/libc_nano.a(lib_a-atexit.o)
 .debug_loc     0x0000000000001268       0xa0 /usr/lib/gcc/arm-none-eabi/4.9.3/../../../arm-none-eabi/lib/armv6-m/libc_nano.a(lib_a-bzero.o)
 .debug_loc     0x0000000000001308       0x1e /usr/lib/gcc/arm-none-eabi/4.9.3/../../../arm-none-eabi/lib/armv6-m/libc_nano.a(lib_a-exit.o)
 .debug_loc     0x0000000000001326       0x2b /usr/lib/gcc/arm-none-eabi/4.9.3/../../../arm-none-eabi/lib/armv6-m/libc_nano.a(lib_a-fini.o)
 .debug_loc     0x0000000000001351       0x3c /usr/lib/gcc/arm-none-eabi/4.9.3/../../../arm-none-eabi/lib/armv6-m/libc_nano.a(lib_a-init.o)
 .debug_loc     0x000000000000138d      0x12e /usr/lib/gcc/arm-none-eabi/4.9.3/../../../arm-none-eabi/lib/armv6-m/libc_nano.a(lib_a-memcmp.o)
 .debug_loc     0x00000000000014bb       0xcf /usr/lib/gcc/arm-none-eabi/4.9.3/../../../arm-none-eabi/lib/armv6-m/libc_nano.a(lib_a-memcpy.o)
 .debug_loc     0x000000000000158a       0x87 /usr/lib/gcc/arm-none-eabi/4.9.3/../../../arm-none-eabi/lib/armv6-m/libc_nano.a(lib_a-memset.o)
 .debug_loc     0x0000000000001611       0x3f /usr/lib/gcc/arm-none-eabi/4.9.3/../../../arm-none-eabi/lib/armv6-m/libc_nano.a(lib_a-printf.o)
 .debug_loc     0x0000000000001650       0x21 /usr/lib/gcc/arm-none-eabi/4.9.3/../../../arm-none-eabi/lib/armv6-m/libc_nano.a(lib_a-strlen.o)
 .debug_loc     0x0000000000001671      0x198 /usr/lib/gcc/arm-none-eabi/4.9.3/../../../arm-none-eabi/lib/armv6-m/libc_nano.a(lib_a-__atexit.o)
 .debug_loc     0x0000000000001809      0x18c /usr/lib/gcc/arm-none-eabi/4.9.3/../../../arm-none-eabi/lib/armv6-m/libc_nano.a(lib_a-__call_atexit.o)
 .debug_loc     0x0000000000001995      0x20e /usr/lib/gcc/arm-none-eabi/4.9.3/../../../arm-none-eabi/lib/armv6-m/libc_nano.a(lib_a-findfp.o)
 .debug_loc     0x0000000000001ba3      0x188 /usr/lib/gcc/arm-none-eabi/4.9.3/../../../arm-none-eabi/lib/armv6-m/libc_nano.a(lib_a-fwalk.o)
 .debug_loc     0x0000000000001d2b      0x214 /usr/lib/gcc/arm-none-eabi/4.9.3/../../../arm-none-eabi/lib/armv6-m/libc_nano.a(lib_a-nano-mallocr.o)
 .debug_loc     0x0000000000001f3f      0x4a8 /usr/lib/gcc/arm-none-eabi/4.9.3/../../../arm-none-eabi/lib/armv6-m/libc_nano.a(lib_a-nano-vfprintf.o)
 .debug_loc     0x00000000000023e7      0x57d /usr/lib/gcc/arm-none-eabi/4.9.3/../../../arm-none-eabi/lib/armv6-m/libc_nano.a(lib_a-nano-vfprintf_i.o)
 .debug_loc     0x0000000000002964       0x4d /usr/lib/gcc/arm-none-eabi/4.9.3/../../../arm-none-eabi/lib/armv6-m/libc_nano.a(lib_a-sbrkr.o)
 .debug_loc     0x00000000000029b1      0x231 /usr/lib/gcc/arm-none-eabi/4.9.3/../../../arm-none-eabi/lib/armv6-m/libc_nano.a(lib_a-stdio.o)
 .debug_loc     0x0000000000002be2      0x11d /usr/lib/gcc/arm-none-eabi/4.9.3/../../../arm-none-eabi/lib/armv6-m/libc_nano.a(lib_a-wbuf.o)
 .debug_loc     0x0000000000002cff       0xa5 /usr/lib/gcc/arm-none-eabi/4.9.3/../../../arm-none-eabi/lib/armv6-m/libc_nano.a(lib_a-writer.o)
 .debug_loc     0x0000000000002da4       0x5d /usr/lib/gcc/arm-none-eabi/4.9.3/../../../arm-none-eabi/lib/armv6-m/libc_nano.a(lib_a-wsetup.o)
 .debug_loc     0x0000000000002e01       0x4d /usr/lib/gcc/arm-none-eabi/4.9.3/../../../arm-none-eabi/lib/armv6-m/libc_nano.a(lib_a-closer.o)
 .debug_loc     0x0000000000002e4e      0x26e /usr/lib/gcc/arm-none-eabi/4.9.3/../../../arm-none-eabi/lib/armv6-m/libc_nano.a(lib_a-fflush.o)
 .debug_loc     0x00000000000030bc      0x539 /usr/lib/gcc/arm-none-eabi/4.9.3/../../../arm-none-eabi/lib/armv6-m/libc_nano.a(lib_a-fvwrite.o)
 .debug_loc     0x00000000000035f5       0xa5 /usr/lib/gcc/arm-none-eabi/4.9.3/../../../arm-none-eabi/lib/armv6-m/libc_nano.a(lib_a-lseekr.o)
 .debug_loc     0x000000000000369a       0xd9 /usr/lib/gcc/arm-none-eabi/4.9.3/../../../arm-none-eabi/lib/armv6-m/libc_nano.a(lib_a-makebuf.o)
 .debug_loc     0x0000000000003773       0xa7 /usr/lib/gcc/arm-none-eabi/4.9.3/../../../arm-none-eabi/lib/armv6-m/libc_nano.a(lib_a-memchr.o)
 .debug_loc     0x000000000000381a      0x152 /usr/lib/gcc/arm-none-eabi/4.9.3/../../../arm-none-eabi/lib/armv6-m/libc_nano.a(lib_a-memmove.o)
 .debug_loc     0x000000000000396c      0x137 /usr/lib/gcc/arm-none-eabi/4.9.3/../../../arm-none-eabi/lib/armv6-m/libc_nano.a(lib_a-nano-freer.o)
 .debug_loc     0x0000000000003aa3      0x142 /usr/lib/gcc/arm-none-eabi/4.9.3/../../../arm-none-eabi/lib/armv6-m/libc_nano.a(lib_a-nano-reallocr.o)
 .debug_loc     0x0000000000003be5       0xa5 /usr/lib/gcc/arm-none-eabi/4.9.3/../../../arm-none-eabi/lib/armv6-m/libc_nano.a(lib_a-readr.o)
 .debug_loc     0x0000000000003c8a       0xc0 /usr/lib/gcc/arm-none-eabi/4.9.3/../../../arm-none-eabi/lib/armv6-m/libc_nano.a(lib_a-reent.o)
 .debug_loc     0x0000000000003d4a       0x79 /usr/lib/gcc/arm-none-eabi/4.9.3/../../../arm-none-eabi/lib/armv6-m/libc_nano.a(lib_a-fstatr.o)
 .debug_loc     0x0000000000003dc3       0x4d /usr/lib/gcc/arm-none-eabi/4.9.3/../../../arm-none-eabi/lib/armv6-m/libc_nano.a(lib_a-isattyr.o)
 .debug_loc     0x0000000000003e10       0x9c /usr/lib/gcc/arm-none-eabi/4.9.3/../../../arm-none-eabi/lib/armv6-m/libc_nano.a(lib_a-nano-msizer.o)
 .debug_loc     0x0000000000003eac       0x21 /usr/lib/gcc/arm-none-eabi/4.9.3/../../../arm-none-eabi/lib/armv6-m/libnosys.a(close.o)
 .debug_loc     0x0000000000003ecd       0x21 /usr/lib/gcc/arm-none-eabi/4.9.3/../../../arm-none-eabi/lib/armv6-m/libnosys.a(fstat.o)
 .debug_loc     0x0000000000003eee       0x21 /usr/lib/gcc/arm-none-eabi/4.9.3/../../../arm-none-eabi/lib/armv6-m/libnosys.a(isatty.o)
 .debug_loc     0x0000000000003f0f       0x42 /usr/lib/gcc/arm-none-eabi/4.9.3/../../../arm-none-eabi/lib/armv6-m/libnosys.a(lseek.o)
 .debug_loc     0x0000000000003f51       0x42 /usr/lib/gcc/arm-none-eabi/4.9.3/../../../arm-none-eabi/lib/armv6-m/libnosys.a(read.o)
 .debug_loc     0x0000000000003f93       0x3f /usr/lib/gcc/arm-none-eabi/4.9.3/../../../arm-none-eabi/lib/armv6-m/libnosys.a(sbrk.o)
 .debug_loc     0x0000000000003fd2       0x42 /usr/lib/gcc/arm-none-eabi/4.9.3/../../../arm-none-eabi/lib/armv6-m/libnosys.a(write.o)

.stab           0x0000000000000000       0x9c
 .stab          0x0000000000000000       0x24 /usr/lib/gcc/arm-none-eabi/4.9.3/../../../arm-none-eabi/lib/armv6-m/libnosys.a(close.o)
 .stab          0x0000000000000024       0x18 /usr/lib/gcc/arm-none-eabi/4.9.3/../../../arm-none-eabi/lib/armv6-m/libnosys.a(fstat.o)
                                         0x24 (size before relaxing)
 .stab          0x000000000000003c       0x18 /usr/lib/gcc/arm-none-eabi/4.9.3/../../../arm-none-eabi/lib/armv6-m/libnosys.a(isatty.o)
                                         0x24 (size before relaxing)
 .stab          0x0000000000000054       0x18 /usr/lib/gcc/arm-none-eabi/4.9.3/../../../arm-none-eabi/lib/armv6-m/libnosys.a(lseek.o)
                                         0x24 (size before relaxing)
 .stab          0x000000000000006c       0x18 /usr/lib/gcc/arm-none-eabi/4.9.3/../../../arm-none-eabi/lib/armv6-m/libnosys.a(read.o)
                                         0x24 (size before relaxing)
 .stab          0x0000000000000084       0x18 /usr/lib/gcc/arm-none-eabi/4.9.3/../../../arm-none-eabi/lib/armv6-m/libnosys.a(write.o)
                                         0x24 (size before relaxing)

.stabstr        0x0000000000000000      0x14d
 .stabstr       0x0000000000000000      0x14d /usr/lib/gcc/arm-none-eabi/4.9.3/../../../arm-none-eabi/lib/armv6-m/libnosys.a(close.o)
